   1               		.file	"EndpointStream_AVR8.c"
   2               	__SP_H__ = 0x3e
   3               	__SP_L__ = 0x3d
   4               	__SREG__ = 0x3f
   5               	__tmp_reg__ = 0
   6               	__zero_reg__ = 1
   7               		.text
   8               	.Ltext0:
   9               		.cfi_sections	.debug_frame
  10               		.section	.text.Endpoint_Discard_Stream,"ax",@progbits
  11               	.global	Endpoint_Discard_Stream
  13               	Endpoint_Discard_Stream:
  14               	.LFB81:
  15               		.file 1 "LUFA-111009/LUFA/Drivers/USB/Core/AVR8/EndpointStream_AVR8.c"
   1:LUFA-111009/LUFA/Drivers/USB/Core/AVR8/EndpointStream_AVR8.c **** /*
   2:LUFA-111009/LUFA/Drivers/USB/Core/AVR8/EndpointStream_AVR8.c ****              LUFA Library
   3:LUFA-111009/LUFA/Drivers/USB/Core/AVR8/EndpointStream_AVR8.c ****      Copyright (C) Dean Camera, 2011.
   4:LUFA-111009/LUFA/Drivers/USB/Core/AVR8/EndpointStream_AVR8.c ****               
   5:LUFA-111009/LUFA/Drivers/USB/Core/AVR8/EndpointStream_AVR8.c ****   dean [at] fourwalledcubicle [dot] com
   6:LUFA-111009/LUFA/Drivers/USB/Core/AVR8/EndpointStream_AVR8.c ****            www.lufa-lib.org
   7:LUFA-111009/LUFA/Drivers/USB/Core/AVR8/EndpointStream_AVR8.c **** */
   8:LUFA-111009/LUFA/Drivers/USB/Core/AVR8/EndpointStream_AVR8.c **** 
   9:LUFA-111009/LUFA/Drivers/USB/Core/AVR8/EndpointStream_AVR8.c **** /*
  10:LUFA-111009/LUFA/Drivers/USB/Core/AVR8/EndpointStream_AVR8.c ****   Copyright 2011  Dean Camera (dean [at] fourwalledcubicle [dot] com)
  11:LUFA-111009/LUFA/Drivers/USB/Core/AVR8/EndpointStream_AVR8.c **** 
  12:LUFA-111009/LUFA/Drivers/USB/Core/AVR8/EndpointStream_AVR8.c ****   Permission to use, copy, modify, distribute, and sell this 
  13:LUFA-111009/LUFA/Drivers/USB/Core/AVR8/EndpointStream_AVR8.c ****   software and its documentation for any purpose is hereby granted
  14:LUFA-111009/LUFA/Drivers/USB/Core/AVR8/EndpointStream_AVR8.c ****   without fee, provided that the above copyright notice appear in 
  15:LUFA-111009/LUFA/Drivers/USB/Core/AVR8/EndpointStream_AVR8.c ****   all copies and that both that the copyright notice and this
  16:LUFA-111009/LUFA/Drivers/USB/Core/AVR8/EndpointStream_AVR8.c ****   permission notice and warranty disclaimer appear in supporting 
  17:LUFA-111009/LUFA/Drivers/USB/Core/AVR8/EndpointStream_AVR8.c ****   documentation, and that the name of the author not be used in 
  18:LUFA-111009/LUFA/Drivers/USB/Core/AVR8/EndpointStream_AVR8.c ****   advertising or publicity pertaining to distribution of the 
  19:LUFA-111009/LUFA/Drivers/USB/Core/AVR8/EndpointStream_AVR8.c ****   software without specific, written prior permission.
  20:LUFA-111009/LUFA/Drivers/USB/Core/AVR8/EndpointStream_AVR8.c **** 
  21:LUFA-111009/LUFA/Drivers/USB/Core/AVR8/EndpointStream_AVR8.c ****   The author disclaim all warranties with regard to this
  22:LUFA-111009/LUFA/Drivers/USB/Core/AVR8/EndpointStream_AVR8.c ****   software, including all implied warranties of merchantability
  23:LUFA-111009/LUFA/Drivers/USB/Core/AVR8/EndpointStream_AVR8.c ****   and fitness.  In no event shall the author be liable for any
  24:LUFA-111009/LUFA/Drivers/USB/Core/AVR8/EndpointStream_AVR8.c ****   special, indirect or consequential damages or any damages
  25:LUFA-111009/LUFA/Drivers/USB/Core/AVR8/EndpointStream_AVR8.c ****   whatsoever resulting from loss of use, data or profits, whether
  26:LUFA-111009/LUFA/Drivers/USB/Core/AVR8/EndpointStream_AVR8.c ****   in an action of contract, negligence or other tortious action,
  27:LUFA-111009/LUFA/Drivers/USB/Core/AVR8/EndpointStream_AVR8.c ****   arising out of or in connection with the use or performance of
  28:LUFA-111009/LUFA/Drivers/USB/Core/AVR8/EndpointStream_AVR8.c ****   this software.
  29:LUFA-111009/LUFA/Drivers/USB/Core/AVR8/EndpointStream_AVR8.c **** */
  30:LUFA-111009/LUFA/Drivers/USB/Core/AVR8/EndpointStream_AVR8.c **** 
  31:LUFA-111009/LUFA/Drivers/USB/Core/AVR8/EndpointStream_AVR8.c **** #define  __INCLUDE_FROM_USB_DRIVER
  32:LUFA-111009/LUFA/Drivers/USB/Core/AVR8/EndpointStream_AVR8.c **** #include "../USBMode.h"
  33:LUFA-111009/LUFA/Drivers/USB/Core/AVR8/EndpointStream_AVR8.c **** 
  34:LUFA-111009/LUFA/Drivers/USB/Core/AVR8/EndpointStream_AVR8.c **** #if defined(USB_CAN_BE_DEVICE)
  35:LUFA-111009/LUFA/Drivers/USB/Core/AVR8/EndpointStream_AVR8.c **** 
  36:LUFA-111009/LUFA/Drivers/USB/Core/AVR8/EndpointStream_AVR8.c **** #include "EndpointStream_AVR8.h"
  37:LUFA-111009/LUFA/Drivers/USB/Core/AVR8/EndpointStream_AVR8.c **** 
  38:LUFA-111009/LUFA/Drivers/USB/Core/AVR8/EndpointStream_AVR8.c **** #if !defined(CONTROL_ONLY_DEVICE)
  39:LUFA-111009/LUFA/Drivers/USB/Core/AVR8/EndpointStream_AVR8.c **** uint8_t Endpoint_Discard_Stream(uint16_t Length,
  40:LUFA-111009/LUFA/Drivers/USB/Core/AVR8/EndpointStream_AVR8.c ****                                 uint16_t* const BytesProcessed)
  41:LUFA-111009/LUFA/Drivers/USB/Core/AVR8/EndpointStream_AVR8.c **** {
  16               		.loc 1 41 0
  17               		.cfi_startproc
  18               	.LVL0:
  19 0000 EF92      		push r14
  20               	.LCFI0:
  21               		.cfi_def_cfa_offset 3
  22               		.cfi_offset 14, -2
  23 0002 FF92      		push r15
  24               	.LCFI1:
  25               		.cfi_def_cfa_offset 4
  26               		.cfi_offset 15, -3
  27 0004 0F93      		push r16
  28               	.LCFI2:
  29               		.cfi_def_cfa_offset 5
  30               		.cfi_offset 16, -4
  31 0006 1F93      		push r17
  32               	.LCFI3:
  33               		.cfi_def_cfa_offset 6
  34               		.cfi_offset 17, -5
  35 0008 CF93      		push r28
  36               	.LCFI4:
  37               		.cfi_def_cfa_offset 7
  38               		.cfi_offset 28, -6
  39 000a DF93      		push r29
  40               	.LCFI5:
  41               		.cfi_def_cfa_offset 8
  42               		.cfi_offset 29, -7
  43               	/* prologue: function */
  44               	/* frame size = 0 */
  45               	/* stack size = 6 */
  46               	.L__stack_usage = 6
  47 000c 8C01      		movw r16,r24
  48 000e EB01      		movw r28,r22
  49               	.LVL1:
  42:LUFA-111009/LUFA/Drivers/USB/Core/AVR8/EndpointStream_AVR8.c **** 	uint8_t  ErrorCode;
  43:LUFA-111009/LUFA/Drivers/USB/Core/AVR8/EndpointStream_AVR8.c **** 	uint16_t BytesInTransfer = 0;
  44:LUFA-111009/LUFA/Drivers/USB/Core/AVR8/EndpointStream_AVR8.c **** 	
  45:LUFA-111009/LUFA/Drivers/USB/Core/AVR8/EndpointStream_AVR8.c **** 	if ((ErrorCode = Endpoint_WaitUntilReady()))
  50               		.loc 1 45 0
  51 0010 0E94 0000 		call Endpoint_WaitUntilReady
  52               	.LVL2:
  53 0014 8111      		cpse r24,__zero_reg__
  54 0016 00C0      		rjmp .L2
  46:LUFA-111009/LUFA/Drivers/USB/Core/AVR8/EndpointStream_AVR8.c **** 	  return ErrorCode;
  47:LUFA-111009/LUFA/Drivers/USB/Core/AVR8/EndpointStream_AVR8.c **** 	  
  48:LUFA-111009/LUFA/Drivers/USB/Core/AVR8/EndpointStream_AVR8.c **** 	if (BytesProcessed != NULL)
  55               		.loc 1 48 0
  56 0018 2097      		sbiw r28,0
  57 001a 01F0      		breq .L3
  49:LUFA-111009/LUFA/Drivers/USB/Core/AVR8/EndpointStream_AVR8.c **** 	  Length -= *BytesProcessed;
  58               		.loc 1 49 0
  59 001c 8881      		ld r24,Y
  60 001e 9981      		ldd r25,Y+1
  61               	.LVL3:
  62 0020 081B      		sub r16,r24
  63 0022 190B      		sbc r17,r25
  64               	.LVL4:
  65               	.L3:
  41:LUFA-111009/LUFA/Drivers/USB/Core/AVR8/EndpointStream_AVR8.c **** 	uint8_t  ErrorCode;
  66               		.loc 1 41 0 discriminator 1
  67 0024 E12C      		mov r14,__zero_reg__
  68 0026 F12C      		mov r15,__zero_reg__
  69               	.LVL5:
  70               	.L4:
  50:LUFA-111009/LUFA/Drivers/USB/Core/AVR8/EndpointStream_AVR8.c **** 
  51:LUFA-111009/LUFA/Drivers/USB/Core/AVR8/EndpointStream_AVR8.c **** 	while (Length)
  71               		.loc 1 51 0 discriminator 1
  72 0028 0115      		cp r16,__zero_reg__
  73 002a 1105      		cpc r17,__zero_reg__
  74 002c 01F0      		breq .L15
  75               	.LBB256:
  76               	.LBB257:
  77               		.file 2 "LUFA-111009/LUFA/Drivers/USB/Core/AVR8/../AVR8/../AVR8/Endpoint_AVR8.h"
   1:LUFA-111009/LUFA/Drivers/USB/Core/AVR8/../AVR8/../AVR8/Endpoint_AVR8.h **** /*
   2:LUFA-111009/LUFA/Drivers/USB/Core/AVR8/../AVR8/../AVR8/Endpoint_AVR8.h ****              LUFA Library
   3:LUFA-111009/LUFA/Drivers/USB/Core/AVR8/../AVR8/../AVR8/Endpoint_AVR8.h ****      Copyright (C) Dean Camera, 2011.
   4:LUFA-111009/LUFA/Drivers/USB/Core/AVR8/../AVR8/../AVR8/Endpoint_AVR8.h **** 
   5:LUFA-111009/LUFA/Drivers/USB/Core/AVR8/../AVR8/../AVR8/Endpoint_AVR8.h ****   dean [at] fourwalledcubicle [dot] com
   6:LUFA-111009/LUFA/Drivers/USB/Core/AVR8/../AVR8/../AVR8/Endpoint_AVR8.h ****            www.lufa-lib.org
   7:LUFA-111009/LUFA/Drivers/USB/Core/AVR8/../AVR8/../AVR8/Endpoint_AVR8.h **** */
   8:LUFA-111009/LUFA/Drivers/USB/Core/AVR8/../AVR8/../AVR8/Endpoint_AVR8.h **** 
   9:LUFA-111009/LUFA/Drivers/USB/Core/AVR8/../AVR8/../AVR8/Endpoint_AVR8.h **** /*
  10:LUFA-111009/LUFA/Drivers/USB/Core/AVR8/../AVR8/../AVR8/Endpoint_AVR8.h ****   Copyright 2011  Dean Camera (dean [at] fourwalledcubicle [dot] com)
  11:LUFA-111009/LUFA/Drivers/USB/Core/AVR8/../AVR8/../AVR8/Endpoint_AVR8.h **** 
  12:LUFA-111009/LUFA/Drivers/USB/Core/AVR8/../AVR8/../AVR8/Endpoint_AVR8.h ****   Permission to use, copy, modify, distribute, and sell this
  13:LUFA-111009/LUFA/Drivers/USB/Core/AVR8/../AVR8/../AVR8/Endpoint_AVR8.h ****   software and its documentation for any purpose is hereby granted
  14:LUFA-111009/LUFA/Drivers/USB/Core/AVR8/../AVR8/../AVR8/Endpoint_AVR8.h ****   without fee, provided that the above copyright notice appear in
  15:LUFA-111009/LUFA/Drivers/USB/Core/AVR8/../AVR8/../AVR8/Endpoint_AVR8.h ****   all copies and that both that the copyright notice and this
  16:LUFA-111009/LUFA/Drivers/USB/Core/AVR8/../AVR8/../AVR8/Endpoint_AVR8.h ****   permission notice and warranty disclaimer appear in supporting
  17:LUFA-111009/LUFA/Drivers/USB/Core/AVR8/../AVR8/../AVR8/Endpoint_AVR8.h ****   documentation, and that the name of the author not be used in
  18:LUFA-111009/LUFA/Drivers/USB/Core/AVR8/../AVR8/../AVR8/Endpoint_AVR8.h ****   advertising or publicity pertaining to distribution of the
  19:LUFA-111009/LUFA/Drivers/USB/Core/AVR8/../AVR8/../AVR8/Endpoint_AVR8.h ****   software without specific, written prior permission.
  20:LUFA-111009/LUFA/Drivers/USB/Core/AVR8/../AVR8/../AVR8/Endpoint_AVR8.h **** 
  21:LUFA-111009/LUFA/Drivers/USB/Core/AVR8/../AVR8/../AVR8/Endpoint_AVR8.h ****   The author disclaim all warranties with regard to this
  22:LUFA-111009/LUFA/Drivers/USB/Core/AVR8/../AVR8/../AVR8/Endpoint_AVR8.h ****   software, including all implied warranties of merchantability
  23:LUFA-111009/LUFA/Drivers/USB/Core/AVR8/../AVR8/../AVR8/Endpoint_AVR8.h ****   and fitness.  In no event shall the author be liable for any
  24:LUFA-111009/LUFA/Drivers/USB/Core/AVR8/../AVR8/../AVR8/Endpoint_AVR8.h ****   special, indirect or consequential damages or any damages
  25:LUFA-111009/LUFA/Drivers/USB/Core/AVR8/../AVR8/../AVR8/Endpoint_AVR8.h ****   whatsoever resulting from loss of use, data or profits, whether
  26:LUFA-111009/LUFA/Drivers/USB/Core/AVR8/../AVR8/../AVR8/Endpoint_AVR8.h ****   in an action of contract, negligence or other tortious action,
  27:LUFA-111009/LUFA/Drivers/USB/Core/AVR8/../AVR8/../AVR8/Endpoint_AVR8.h ****   arising out of or in connection with the use or performance of
  28:LUFA-111009/LUFA/Drivers/USB/Core/AVR8/../AVR8/../AVR8/Endpoint_AVR8.h ****   this software.
  29:LUFA-111009/LUFA/Drivers/USB/Core/AVR8/../AVR8/../AVR8/Endpoint_AVR8.h **** */
  30:LUFA-111009/LUFA/Drivers/USB/Core/AVR8/../AVR8/../AVR8/Endpoint_AVR8.h **** 
  31:LUFA-111009/LUFA/Drivers/USB/Core/AVR8/../AVR8/../AVR8/Endpoint_AVR8.h **** /** \file
  32:LUFA-111009/LUFA/Drivers/USB/Core/AVR8/../AVR8/../AVR8/Endpoint_AVR8.h ****  *  \brief USB Endpoint definitions for the AVR8 microcontrollers.
  33:LUFA-111009/LUFA/Drivers/USB/Core/AVR8/../AVR8/../AVR8/Endpoint_AVR8.h ****  *  \copydetails Group_EndpointManagement_AVR8
  34:LUFA-111009/LUFA/Drivers/USB/Core/AVR8/../AVR8/../AVR8/Endpoint_AVR8.h ****  *
  35:LUFA-111009/LUFA/Drivers/USB/Core/AVR8/../AVR8/../AVR8/Endpoint_AVR8.h ****  *  \note This file should not be included directly. It is automatically included as needed by the 
  36:LUFA-111009/LUFA/Drivers/USB/Core/AVR8/../AVR8/../AVR8/Endpoint_AVR8.h ****  *        dispatch header located in LUFA/Drivers/USB/USB.h.
  37:LUFA-111009/LUFA/Drivers/USB/Core/AVR8/../AVR8/../AVR8/Endpoint_AVR8.h ****  */
  38:LUFA-111009/LUFA/Drivers/USB/Core/AVR8/../AVR8/../AVR8/Endpoint_AVR8.h **** 
  39:LUFA-111009/LUFA/Drivers/USB/Core/AVR8/../AVR8/../AVR8/Endpoint_AVR8.h **** /** \ingroup Group_EndpointRW
  40:LUFA-111009/LUFA/Drivers/USB/Core/AVR8/../AVR8/../AVR8/Endpoint_AVR8.h ****  *  \defgroup Group_EndpointRW_AVR8 Endpoint Data Reading and Writing (AVR8)
  41:LUFA-111009/LUFA/Drivers/USB/Core/AVR8/../AVR8/../AVR8/Endpoint_AVR8.h ****  *  \brief Endpoint data read/write definitions for the Atmel AVR8 architecture.
  42:LUFA-111009/LUFA/Drivers/USB/Core/AVR8/../AVR8/../AVR8/Endpoint_AVR8.h ****  *
  43:LUFA-111009/LUFA/Drivers/USB/Core/AVR8/../AVR8/../AVR8/Endpoint_AVR8.h ****  *  Functions, macros, variables, enums and types related to data reading and writing from and to e
  44:LUFA-111009/LUFA/Drivers/USB/Core/AVR8/../AVR8/../AVR8/Endpoint_AVR8.h ****  */
  45:LUFA-111009/LUFA/Drivers/USB/Core/AVR8/../AVR8/../AVR8/Endpoint_AVR8.h **** 
  46:LUFA-111009/LUFA/Drivers/USB/Core/AVR8/../AVR8/../AVR8/Endpoint_AVR8.h **** /** \ingroup Group_EndpointPrimitiveRW
  47:LUFA-111009/LUFA/Drivers/USB/Core/AVR8/../AVR8/../AVR8/Endpoint_AVR8.h ****  *  \defgroup Group_EndpointPrimitiveRW_AVR8 Read/Write of Primitive Data Types (AVR8)
  48:LUFA-111009/LUFA/Drivers/USB/Core/AVR8/../AVR8/../AVR8/Endpoint_AVR8.h ****  *  \brief Endpoint primitive read/write definitions for the Atmel AVR8 architecture.
  49:LUFA-111009/LUFA/Drivers/USB/Core/AVR8/../AVR8/../AVR8/Endpoint_AVR8.h ****  *
  50:LUFA-111009/LUFA/Drivers/USB/Core/AVR8/../AVR8/../AVR8/Endpoint_AVR8.h ****  *  Functions, macros, variables, enums and types related to data reading and writing of primitive 
  51:LUFA-111009/LUFA/Drivers/USB/Core/AVR8/../AVR8/../AVR8/Endpoint_AVR8.h ****  *  from and to endpoints.
  52:LUFA-111009/LUFA/Drivers/USB/Core/AVR8/../AVR8/../AVR8/Endpoint_AVR8.h ****  */
  53:LUFA-111009/LUFA/Drivers/USB/Core/AVR8/../AVR8/../AVR8/Endpoint_AVR8.h **** 
  54:LUFA-111009/LUFA/Drivers/USB/Core/AVR8/../AVR8/../AVR8/Endpoint_AVR8.h **** /** \ingroup Group_EndpointPacketManagement
  55:LUFA-111009/LUFA/Drivers/USB/Core/AVR8/../AVR8/../AVR8/Endpoint_AVR8.h ****  *  \defgroup Group_EndpointPacketManagement_AVR8 Endpoint Packet Management (AVR8)
  56:LUFA-111009/LUFA/Drivers/USB/Core/AVR8/../AVR8/../AVR8/Endpoint_AVR8.h ****  *  \brief Endpoint packet management definitions for the Atmel AVR8 architecture.
  57:LUFA-111009/LUFA/Drivers/USB/Core/AVR8/../AVR8/../AVR8/Endpoint_AVR8.h ****  *
  58:LUFA-111009/LUFA/Drivers/USB/Core/AVR8/../AVR8/../AVR8/Endpoint_AVR8.h ****  *  Functions, macros, variables, enums and types related to packet management of endpoints.
  59:LUFA-111009/LUFA/Drivers/USB/Core/AVR8/../AVR8/../AVR8/Endpoint_AVR8.h ****  */
  60:LUFA-111009/LUFA/Drivers/USB/Core/AVR8/../AVR8/../AVR8/Endpoint_AVR8.h **** 
  61:LUFA-111009/LUFA/Drivers/USB/Core/AVR8/../AVR8/../AVR8/Endpoint_AVR8.h **** /** \ingroup Group_EndpointManagement
  62:LUFA-111009/LUFA/Drivers/USB/Core/AVR8/../AVR8/../AVR8/Endpoint_AVR8.h ****  *  \defgroup Group_EndpointManagement_AVR8 Endpoint Management (AVR8)
  63:LUFA-111009/LUFA/Drivers/USB/Core/AVR8/../AVR8/../AVR8/Endpoint_AVR8.h ****  *  \brief Endpoint management definitions for the Atmel AVR8 architecture.
  64:LUFA-111009/LUFA/Drivers/USB/Core/AVR8/../AVR8/../AVR8/Endpoint_AVR8.h ****  *
  65:LUFA-111009/LUFA/Drivers/USB/Core/AVR8/../AVR8/../AVR8/Endpoint_AVR8.h ****  *  Functions, macros and enums related to endpoint management when in USB Device mode. This
  66:LUFA-111009/LUFA/Drivers/USB/Core/AVR8/../AVR8/../AVR8/Endpoint_AVR8.h ****  *  module contains the endpoint management macros, as well as endpoint interrupt and data
  67:LUFA-111009/LUFA/Drivers/USB/Core/AVR8/../AVR8/../AVR8/Endpoint_AVR8.h ****  *  send/receive functions for various data types.
  68:LUFA-111009/LUFA/Drivers/USB/Core/AVR8/../AVR8/../AVR8/Endpoint_AVR8.h ****  *
  69:LUFA-111009/LUFA/Drivers/USB/Core/AVR8/../AVR8/../AVR8/Endpoint_AVR8.h ****  *  @{
  70:LUFA-111009/LUFA/Drivers/USB/Core/AVR8/../AVR8/../AVR8/Endpoint_AVR8.h ****  */
  71:LUFA-111009/LUFA/Drivers/USB/Core/AVR8/../AVR8/../AVR8/Endpoint_AVR8.h **** 
  72:LUFA-111009/LUFA/Drivers/USB/Core/AVR8/../AVR8/../AVR8/Endpoint_AVR8.h **** #ifndef __ENDPOINT_AVR8_H__
  73:LUFA-111009/LUFA/Drivers/USB/Core/AVR8/../AVR8/../AVR8/Endpoint_AVR8.h **** #define __ENDPOINT_AVR8_H__
  74:LUFA-111009/LUFA/Drivers/USB/Core/AVR8/../AVR8/../AVR8/Endpoint_AVR8.h **** 
  75:LUFA-111009/LUFA/Drivers/USB/Core/AVR8/../AVR8/../AVR8/Endpoint_AVR8.h **** 	/* Includes: */
  76:LUFA-111009/LUFA/Drivers/USB/Core/AVR8/../AVR8/../AVR8/Endpoint_AVR8.h **** 		#include "../../../../Common/Common.h"
  77:LUFA-111009/LUFA/Drivers/USB/Core/AVR8/../AVR8/../AVR8/Endpoint_AVR8.h **** 		#include "../USBTask.h"
  78:LUFA-111009/LUFA/Drivers/USB/Core/AVR8/../AVR8/../AVR8/Endpoint_AVR8.h **** 		#include "../USBInterrupt.h"
  79:LUFA-111009/LUFA/Drivers/USB/Core/AVR8/../AVR8/../AVR8/Endpoint_AVR8.h **** 
  80:LUFA-111009/LUFA/Drivers/USB/Core/AVR8/../AVR8/../AVR8/Endpoint_AVR8.h **** 	/* Enable C linkage for C++ Compilers: */
  81:LUFA-111009/LUFA/Drivers/USB/Core/AVR8/../AVR8/../AVR8/Endpoint_AVR8.h **** 		#if defined(__cplusplus)
  82:LUFA-111009/LUFA/Drivers/USB/Core/AVR8/../AVR8/../AVR8/Endpoint_AVR8.h **** 			extern "C" {
  83:LUFA-111009/LUFA/Drivers/USB/Core/AVR8/../AVR8/../AVR8/Endpoint_AVR8.h **** 		#endif
  84:LUFA-111009/LUFA/Drivers/USB/Core/AVR8/../AVR8/../AVR8/Endpoint_AVR8.h **** 
  85:LUFA-111009/LUFA/Drivers/USB/Core/AVR8/../AVR8/../AVR8/Endpoint_AVR8.h **** 	/* Preprocessor Checks: */
  86:LUFA-111009/LUFA/Drivers/USB/Core/AVR8/../AVR8/../AVR8/Endpoint_AVR8.h **** 		#if !defined(__INCLUDE_FROM_USB_DRIVER)
  87:LUFA-111009/LUFA/Drivers/USB/Core/AVR8/../AVR8/../AVR8/Endpoint_AVR8.h **** 			#error Do not include this file directly. Include LUFA/Drivers/USB/USB.h instead.
  88:LUFA-111009/LUFA/Drivers/USB/Core/AVR8/../AVR8/../AVR8/Endpoint_AVR8.h **** 		#endif
  89:LUFA-111009/LUFA/Drivers/USB/Core/AVR8/../AVR8/../AVR8/Endpoint_AVR8.h **** 
  90:LUFA-111009/LUFA/Drivers/USB/Core/AVR8/../AVR8/../AVR8/Endpoint_AVR8.h **** 	/* Private Interface - For use in library only: */
  91:LUFA-111009/LUFA/Drivers/USB/Core/AVR8/../AVR8/../AVR8/Endpoint_AVR8.h **** 	#if !defined(__DOXYGEN__)
  92:LUFA-111009/LUFA/Drivers/USB/Core/AVR8/../AVR8/../AVR8/Endpoint_AVR8.h **** 		/* Macros: */
  93:LUFA-111009/LUFA/Drivers/USB/Core/AVR8/../AVR8/../AVR8/Endpoint_AVR8.h **** 			#define _ENDPOINT_GET_MAXSIZE(EPIndex)         _ENDPOINT_GET_MAXSIZE2(ENDPOINT_DETAILS_EP ## EPI
  94:LUFA-111009/LUFA/Drivers/USB/Core/AVR8/../AVR8/../AVR8/Endpoint_AVR8.h **** 			#define _ENDPOINT_GET_MAXSIZE2(EPDetails)      _ENDPOINT_GET_MAXSIZE3(EPDetails)
  95:LUFA-111009/LUFA/Drivers/USB/Core/AVR8/../AVR8/../AVR8/Endpoint_AVR8.h **** 			#define _ENDPOINT_GET_MAXSIZE3(MaxSize, Banks) (MaxSize)
  96:LUFA-111009/LUFA/Drivers/USB/Core/AVR8/../AVR8/../AVR8/Endpoint_AVR8.h **** 
  97:LUFA-111009/LUFA/Drivers/USB/Core/AVR8/../AVR8/../AVR8/Endpoint_AVR8.h **** 			#define _ENDPOINT_GET_BANKS(EPIndex)           _ENDPOINT_GET_BANKS2(ENDPOINT_DETAILS_EP ## EPInd
  98:LUFA-111009/LUFA/Drivers/USB/Core/AVR8/../AVR8/../AVR8/Endpoint_AVR8.h **** 			#define _ENDPOINT_GET_BANKS2(EPDetails)        _ENDPOINT_GET_BANKS3(EPDetails)
  99:LUFA-111009/LUFA/Drivers/USB/Core/AVR8/../AVR8/../AVR8/Endpoint_AVR8.h **** 			#define _ENDPOINT_GET_BANKS3(MaxSize, Banks)   (Banks)
 100:LUFA-111009/LUFA/Drivers/USB/Core/AVR8/../AVR8/../AVR8/Endpoint_AVR8.h **** 
 101:LUFA-111009/LUFA/Drivers/USB/Core/AVR8/../AVR8/../AVR8/Endpoint_AVR8.h **** 			#if defined(USB_SERIES_4_AVR) || defined(USB_SERIES_6_AVR) || defined(USB_SERIES_7_AVR)
 102:LUFA-111009/LUFA/Drivers/USB/Core/AVR8/../AVR8/../AVR8/Endpoint_AVR8.h **** 				#define ENDPOINT_DETAILS_MAXEP             7
 103:LUFA-111009/LUFA/Drivers/USB/Core/AVR8/../AVR8/../AVR8/Endpoint_AVR8.h **** 
 104:LUFA-111009/LUFA/Drivers/USB/Core/AVR8/../AVR8/../AVR8/Endpoint_AVR8.h **** 				#define ENDPOINT_DETAILS_EP0               64,  1
 105:LUFA-111009/LUFA/Drivers/USB/Core/AVR8/../AVR8/../AVR8/Endpoint_AVR8.h **** 				#define ENDPOINT_DETAILS_EP1               256, 2
 106:LUFA-111009/LUFA/Drivers/USB/Core/AVR8/../AVR8/../AVR8/Endpoint_AVR8.h **** 				#define ENDPOINT_DETAILS_EP2               64,  2
 107:LUFA-111009/LUFA/Drivers/USB/Core/AVR8/../AVR8/../AVR8/Endpoint_AVR8.h **** 				#define ENDPOINT_DETAILS_EP3               64,  2
 108:LUFA-111009/LUFA/Drivers/USB/Core/AVR8/../AVR8/../AVR8/Endpoint_AVR8.h **** 				#define ENDPOINT_DETAILS_EP4               64,  2
 109:LUFA-111009/LUFA/Drivers/USB/Core/AVR8/../AVR8/../AVR8/Endpoint_AVR8.h **** 				#define ENDPOINT_DETAILS_EP5               64,  2
 110:LUFA-111009/LUFA/Drivers/USB/Core/AVR8/../AVR8/../AVR8/Endpoint_AVR8.h **** 				#define ENDPOINT_DETAILS_EP6               64,  2
 111:LUFA-111009/LUFA/Drivers/USB/Core/AVR8/../AVR8/../AVR8/Endpoint_AVR8.h **** 			#else
 112:LUFA-111009/LUFA/Drivers/USB/Core/AVR8/../AVR8/../AVR8/Endpoint_AVR8.h **** 				#define ENDPOINT_DETAILS_MAXEP             5
 113:LUFA-111009/LUFA/Drivers/USB/Core/AVR8/../AVR8/../AVR8/Endpoint_AVR8.h **** 
 114:LUFA-111009/LUFA/Drivers/USB/Core/AVR8/../AVR8/../AVR8/Endpoint_AVR8.h **** 				#define ENDPOINT_DETAILS_EP0               64,  1
 115:LUFA-111009/LUFA/Drivers/USB/Core/AVR8/../AVR8/../AVR8/Endpoint_AVR8.h **** 				#define ENDPOINT_DETAILS_EP1               64,  1
 116:LUFA-111009/LUFA/Drivers/USB/Core/AVR8/../AVR8/../AVR8/Endpoint_AVR8.h **** 				#define ENDPOINT_DETAILS_EP2               64,  1
 117:LUFA-111009/LUFA/Drivers/USB/Core/AVR8/../AVR8/../AVR8/Endpoint_AVR8.h **** 				#define ENDPOINT_DETAILS_EP3               64,  2
 118:LUFA-111009/LUFA/Drivers/USB/Core/AVR8/../AVR8/../AVR8/Endpoint_AVR8.h **** 				#define ENDPOINT_DETAILS_EP4               64,  2
 119:LUFA-111009/LUFA/Drivers/USB/Core/AVR8/../AVR8/../AVR8/Endpoint_AVR8.h **** 			#endif
 120:LUFA-111009/LUFA/Drivers/USB/Core/AVR8/../AVR8/../AVR8/Endpoint_AVR8.h **** 
 121:LUFA-111009/LUFA/Drivers/USB/Core/AVR8/../AVR8/../AVR8/Endpoint_AVR8.h **** 		/* Inline Functions: */
 122:LUFA-111009/LUFA/Drivers/USB/Core/AVR8/../AVR8/../AVR8/Endpoint_AVR8.h **** 			static inline uint8_t Endpoint_BytesToEPSizeMask(const uint16_t Bytes) ATTR_WARN_UNUSED_RESULT A
 123:LUFA-111009/LUFA/Drivers/USB/Core/AVR8/../AVR8/../AVR8/Endpoint_AVR8.h **** 			                                                                       ATTR_ALWAYS_INLINE;
 124:LUFA-111009/LUFA/Drivers/USB/Core/AVR8/../AVR8/../AVR8/Endpoint_AVR8.h **** 			static inline uint8_t Endpoint_BytesToEPSizeMask(const uint16_t Bytes)
 125:LUFA-111009/LUFA/Drivers/USB/Core/AVR8/../AVR8/../AVR8/Endpoint_AVR8.h **** 			{
 126:LUFA-111009/LUFA/Drivers/USB/Core/AVR8/../AVR8/../AVR8/Endpoint_AVR8.h **** 				uint8_t  MaskVal    = 0;
 127:LUFA-111009/LUFA/Drivers/USB/Core/AVR8/../AVR8/../AVR8/Endpoint_AVR8.h **** 				uint16_t CheckBytes = 8;
 128:LUFA-111009/LUFA/Drivers/USB/Core/AVR8/../AVR8/../AVR8/Endpoint_AVR8.h **** 
 129:LUFA-111009/LUFA/Drivers/USB/Core/AVR8/../AVR8/../AVR8/Endpoint_AVR8.h **** 				while (CheckBytes < Bytes)
 130:LUFA-111009/LUFA/Drivers/USB/Core/AVR8/../AVR8/../AVR8/Endpoint_AVR8.h **** 				{
 131:LUFA-111009/LUFA/Drivers/USB/Core/AVR8/../AVR8/../AVR8/Endpoint_AVR8.h **** 					MaskVal++;
 132:LUFA-111009/LUFA/Drivers/USB/Core/AVR8/../AVR8/../AVR8/Endpoint_AVR8.h **** 					CheckBytes <<= 1;
 133:LUFA-111009/LUFA/Drivers/USB/Core/AVR8/../AVR8/../AVR8/Endpoint_AVR8.h **** 				}
 134:LUFA-111009/LUFA/Drivers/USB/Core/AVR8/../AVR8/../AVR8/Endpoint_AVR8.h **** 
 135:LUFA-111009/LUFA/Drivers/USB/Core/AVR8/../AVR8/../AVR8/Endpoint_AVR8.h **** 				return (MaskVal << EPSIZE0);
 136:LUFA-111009/LUFA/Drivers/USB/Core/AVR8/../AVR8/../AVR8/Endpoint_AVR8.h **** 			}
 137:LUFA-111009/LUFA/Drivers/USB/Core/AVR8/../AVR8/../AVR8/Endpoint_AVR8.h **** 
 138:LUFA-111009/LUFA/Drivers/USB/Core/AVR8/../AVR8/../AVR8/Endpoint_AVR8.h **** 		/* Function Prototypes: */
 139:LUFA-111009/LUFA/Drivers/USB/Core/AVR8/../AVR8/../AVR8/Endpoint_AVR8.h **** 			void Endpoint_ClearEndpoints(void);
 140:LUFA-111009/LUFA/Drivers/USB/Core/AVR8/../AVR8/../AVR8/Endpoint_AVR8.h **** 			bool Endpoint_ConfigureEndpoint_Prv(const uint8_t Number,
 141:LUFA-111009/LUFA/Drivers/USB/Core/AVR8/../AVR8/../AVR8/Endpoint_AVR8.h **** 			                                    const uint8_t UECFG0XData,
 142:LUFA-111009/LUFA/Drivers/USB/Core/AVR8/../AVR8/../AVR8/Endpoint_AVR8.h **** 			                                    const uint8_t UECFG1XData);
 143:LUFA-111009/LUFA/Drivers/USB/Core/AVR8/../AVR8/../AVR8/Endpoint_AVR8.h **** 
 144:LUFA-111009/LUFA/Drivers/USB/Core/AVR8/../AVR8/../AVR8/Endpoint_AVR8.h **** 	#endif
 145:LUFA-111009/LUFA/Drivers/USB/Core/AVR8/../AVR8/../AVR8/Endpoint_AVR8.h **** 
 146:LUFA-111009/LUFA/Drivers/USB/Core/AVR8/../AVR8/../AVR8/Endpoint_AVR8.h **** 	/* Public Interface - May be used in end-application: */
 147:LUFA-111009/LUFA/Drivers/USB/Core/AVR8/../AVR8/../AVR8/Endpoint_AVR8.h **** 		/* Macros: */			
 148:LUFA-111009/LUFA/Drivers/USB/Core/AVR8/../AVR8/../AVR8/Endpoint_AVR8.h **** 			/** \name Endpoint Bank Mode Masks */
 149:LUFA-111009/LUFA/Drivers/USB/Core/AVR8/../AVR8/../AVR8/Endpoint_AVR8.h **** 			//@{
 150:LUFA-111009/LUFA/Drivers/USB/Core/AVR8/../AVR8/../AVR8/Endpoint_AVR8.h **** 			/** Mask for the bank mode selection for the \ref Endpoint_ConfigureEndpoint() macro. This indic
 151:LUFA-111009/LUFA/Drivers/USB/Core/AVR8/../AVR8/../AVR8/Endpoint_AVR8.h **** 			 *  that the endpoint should have one single bank, which requires less USB FIFO memory but resul
 152:LUFA-111009/LUFA/Drivers/USB/Core/AVR8/../AVR8/../AVR8/Endpoint_AVR8.h **** 			 *  in slower transfers as only one USB device (the AVR or the host) can access the endpoint's
 153:LUFA-111009/LUFA/Drivers/USB/Core/AVR8/../AVR8/../AVR8/Endpoint_AVR8.h **** 			 *  bank at the one time.
 154:LUFA-111009/LUFA/Drivers/USB/Core/AVR8/../AVR8/../AVR8/Endpoint_AVR8.h **** 			 */
 155:LUFA-111009/LUFA/Drivers/USB/Core/AVR8/../AVR8/../AVR8/Endpoint_AVR8.h **** 			#define ENDPOINT_BANK_SINGLE                    (0 << EPBK0)
 156:LUFA-111009/LUFA/Drivers/USB/Core/AVR8/../AVR8/../AVR8/Endpoint_AVR8.h **** 
 157:LUFA-111009/LUFA/Drivers/USB/Core/AVR8/../AVR8/../AVR8/Endpoint_AVR8.h **** 			/** Mask for the bank mode selection for the \ref Endpoint_ConfigureEndpoint() macro. This indic
 158:LUFA-111009/LUFA/Drivers/USB/Core/AVR8/../AVR8/../AVR8/Endpoint_AVR8.h **** 			 *  that the endpoint should have two banks, which requires more USB FIFO memory but results
 159:LUFA-111009/LUFA/Drivers/USB/Core/AVR8/../AVR8/../AVR8/Endpoint_AVR8.h **** 			 *  in faster transfers as one USB device (the AVR or the host) can access one bank while the ot
 160:LUFA-111009/LUFA/Drivers/USB/Core/AVR8/../AVR8/../AVR8/Endpoint_AVR8.h **** 			 *  accesses the second bank.
 161:LUFA-111009/LUFA/Drivers/USB/Core/AVR8/../AVR8/../AVR8/Endpoint_AVR8.h **** 			 */
 162:LUFA-111009/LUFA/Drivers/USB/Core/AVR8/../AVR8/../AVR8/Endpoint_AVR8.h **** 			#define ENDPOINT_BANK_DOUBLE                    (1 << EPBK0)
 163:LUFA-111009/LUFA/Drivers/USB/Core/AVR8/../AVR8/../AVR8/Endpoint_AVR8.h **** 			//@}
 164:LUFA-111009/LUFA/Drivers/USB/Core/AVR8/../AVR8/../AVR8/Endpoint_AVR8.h **** 
 165:LUFA-111009/LUFA/Drivers/USB/Core/AVR8/../AVR8/../AVR8/Endpoint_AVR8.h **** 			#if (!defined(FIXED_CONTROL_ENDPOINT_SIZE) || defined(__DOXYGEN__))
 166:LUFA-111009/LUFA/Drivers/USB/Core/AVR8/../AVR8/../AVR8/Endpoint_AVR8.h **** 				/** Default size of the default control endpoint's bank, until altered by the control endpoint 
 167:LUFA-111009/LUFA/Drivers/USB/Core/AVR8/../AVR8/../AVR8/Endpoint_AVR8.h **** 				 *  value in the device descriptor. Not available if the \c FIXED_CONTROL_ENDPOINT_SIZE token i
 168:LUFA-111009/LUFA/Drivers/USB/Core/AVR8/../AVR8/../AVR8/Endpoint_AVR8.h **** 				 */
 169:LUFA-111009/LUFA/Drivers/USB/Core/AVR8/../AVR8/../AVR8/Endpoint_AVR8.h **** 				#define ENDPOINT_CONTROLEP_DEFAULT_SIZE     8
 170:LUFA-111009/LUFA/Drivers/USB/Core/AVR8/../AVR8/../AVR8/Endpoint_AVR8.h **** 			#endif
 171:LUFA-111009/LUFA/Drivers/USB/Core/AVR8/../AVR8/../AVR8/Endpoint_AVR8.h **** 
 172:LUFA-111009/LUFA/Drivers/USB/Core/AVR8/../AVR8/../AVR8/Endpoint_AVR8.h **** 			/** Retrieves the maximum bank size in bytes of a given endpoint.
 173:LUFA-111009/LUFA/Drivers/USB/Core/AVR8/../AVR8/../AVR8/Endpoint_AVR8.h **** 			 *
 174:LUFA-111009/LUFA/Drivers/USB/Core/AVR8/../AVR8/../AVR8/Endpoint_AVR8.h **** 			 *  \note This macro will only work correctly on endpoint indexes that are compile-time constant
 175:LUFA-111009/LUFA/Drivers/USB/Core/AVR8/../AVR8/../AVR8/Endpoint_AVR8.h **** 			 *        defined by the preprocessor.
 176:LUFA-111009/LUFA/Drivers/USB/Core/AVR8/../AVR8/../AVR8/Endpoint_AVR8.h **** 			 *
 177:LUFA-111009/LUFA/Drivers/USB/Core/AVR8/../AVR8/../AVR8/Endpoint_AVR8.h **** 			 *  \param[in] EPIndex  Endpoint number, a value between 0 and (\ref ENDPOINT_TOTAL_ENDPOINTS - 
 178:LUFA-111009/LUFA/Drivers/USB/Core/AVR8/../AVR8/../AVR8/Endpoint_AVR8.h **** 			 */
 179:LUFA-111009/LUFA/Drivers/USB/Core/AVR8/../AVR8/../AVR8/Endpoint_AVR8.h **** 			#define ENDPOINT_MAX_SIZE(EPIndex)              _ENDPOINT_GET_MAXSIZE(EPIndex)
 180:LUFA-111009/LUFA/Drivers/USB/Core/AVR8/../AVR8/../AVR8/Endpoint_AVR8.h **** 
 181:LUFA-111009/LUFA/Drivers/USB/Core/AVR8/../AVR8/../AVR8/Endpoint_AVR8.h **** 			/** Retrieves the total number of banks supported by the given endpoint.
 182:LUFA-111009/LUFA/Drivers/USB/Core/AVR8/../AVR8/../AVR8/Endpoint_AVR8.h **** 			 *
 183:LUFA-111009/LUFA/Drivers/USB/Core/AVR8/../AVR8/../AVR8/Endpoint_AVR8.h **** 			 *  \note This macro will only work correctly on endpoint indexes that are compile-time constant
 184:LUFA-111009/LUFA/Drivers/USB/Core/AVR8/../AVR8/../AVR8/Endpoint_AVR8.h **** 			 *        defined by the preprocessor.
 185:LUFA-111009/LUFA/Drivers/USB/Core/AVR8/../AVR8/../AVR8/Endpoint_AVR8.h **** 			 *
 186:LUFA-111009/LUFA/Drivers/USB/Core/AVR8/../AVR8/../AVR8/Endpoint_AVR8.h **** 			 *  \param[in] EPIndex  Endpoint number, a value between 0 and (\ref ENDPOINT_TOTAL_ENDPOINTS - 
 187:LUFA-111009/LUFA/Drivers/USB/Core/AVR8/../AVR8/../AVR8/Endpoint_AVR8.h **** 			 */
 188:LUFA-111009/LUFA/Drivers/USB/Core/AVR8/../AVR8/../AVR8/Endpoint_AVR8.h **** 			#define ENDPOINT_BANKS_SUPPORTED(EPIndex)       _ENDPOINT_GET_BANKS(EPIndex)
 189:LUFA-111009/LUFA/Drivers/USB/Core/AVR8/../AVR8/../AVR8/Endpoint_AVR8.h **** 
 190:LUFA-111009/LUFA/Drivers/USB/Core/AVR8/../AVR8/../AVR8/Endpoint_AVR8.h **** 			#if !defined(CONTROL_ONLY_DEVICE) || defined(__DOXYGEN__)
 191:LUFA-111009/LUFA/Drivers/USB/Core/AVR8/../AVR8/../AVR8/Endpoint_AVR8.h **** 				/** Total number of endpoints (including the default control endpoint at address 0) which may
 192:LUFA-111009/LUFA/Drivers/USB/Core/AVR8/../AVR8/../AVR8/Endpoint_AVR8.h **** 				 *  be used in the device. Different USB AVR models support different amounts of endpoints,
 193:LUFA-111009/LUFA/Drivers/USB/Core/AVR8/../AVR8/../AVR8/Endpoint_AVR8.h **** 				 *  this value reflects the maximum number of endpoints for the currently selected AVR model.
 194:LUFA-111009/LUFA/Drivers/USB/Core/AVR8/../AVR8/../AVR8/Endpoint_AVR8.h **** 				 */
 195:LUFA-111009/LUFA/Drivers/USB/Core/AVR8/../AVR8/../AVR8/Endpoint_AVR8.h **** 				#define ENDPOINT_TOTAL_ENDPOINTS            ENDPOINT_DETAILS_MAXEP
 196:LUFA-111009/LUFA/Drivers/USB/Core/AVR8/../AVR8/../AVR8/Endpoint_AVR8.h **** 			#else
 197:LUFA-111009/LUFA/Drivers/USB/Core/AVR8/../AVR8/../AVR8/Endpoint_AVR8.h **** 				#define ENDPOINT_TOTAL_ENDPOINTS            1
 198:LUFA-111009/LUFA/Drivers/USB/Core/AVR8/../AVR8/../AVR8/Endpoint_AVR8.h **** 			#endif
 199:LUFA-111009/LUFA/Drivers/USB/Core/AVR8/../AVR8/../AVR8/Endpoint_AVR8.h **** 
 200:LUFA-111009/LUFA/Drivers/USB/Core/AVR8/../AVR8/../AVR8/Endpoint_AVR8.h **** 		/* Enums: */
 201:LUFA-111009/LUFA/Drivers/USB/Core/AVR8/../AVR8/../AVR8/Endpoint_AVR8.h **** 			/** Enum for the possible error return codes of the \ref Endpoint_WaitUntilReady() function.
 202:LUFA-111009/LUFA/Drivers/USB/Core/AVR8/../AVR8/../AVR8/Endpoint_AVR8.h **** 			 *
 203:LUFA-111009/LUFA/Drivers/USB/Core/AVR8/../AVR8/../AVR8/Endpoint_AVR8.h **** 			 *  \ingroup Group_EndpointRW_AVR8
 204:LUFA-111009/LUFA/Drivers/USB/Core/AVR8/../AVR8/../AVR8/Endpoint_AVR8.h **** 			 */
 205:LUFA-111009/LUFA/Drivers/USB/Core/AVR8/../AVR8/../AVR8/Endpoint_AVR8.h **** 			enum Endpoint_WaitUntilReady_ErrorCodes_t
 206:LUFA-111009/LUFA/Drivers/USB/Core/AVR8/../AVR8/../AVR8/Endpoint_AVR8.h **** 			{
 207:LUFA-111009/LUFA/Drivers/USB/Core/AVR8/../AVR8/../AVR8/Endpoint_AVR8.h **** 				ENDPOINT_READYWAIT_NoError                 = 0, /**< Endpoint is ready for next packet, no erro
 208:LUFA-111009/LUFA/Drivers/USB/Core/AVR8/../AVR8/../AVR8/Endpoint_AVR8.h **** 				ENDPOINT_READYWAIT_EndpointStalled         = 1, /**< The endpoint was stalled during the stream
 209:LUFA-111009/LUFA/Drivers/USB/Core/AVR8/../AVR8/../AVR8/Endpoint_AVR8.h **** 				                                                 *   transfer by the host or device.
 210:LUFA-111009/LUFA/Drivers/USB/Core/AVR8/../AVR8/../AVR8/Endpoint_AVR8.h **** 				                                                 */
 211:LUFA-111009/LUFA/Drivers/USB/Core/AVR8/../AVR8/../AVR8/Endpoint_AVR8.h **** 				ENDPOINT_READYWAIT_DeviceDisconnected      = 2,	/**< Device was disconnected from the host whil
 212:LUFA-111009/LUFA/Drivers/USB/Core/AVR8/../AVR8/../AVR8/Endpoint_AVR8.h **** 				                                                 *   waiting for the endpoint to become ready.
 213:LUFA-111009/LUFA/Drivers/USB/Core/AVR8/../AVR8/../AVR8/Endpoint_AVR8.h **** 				                                                 */
 214:LUFA-111009/LUFA/Drivers/USB/Core/AVR8/../AVR8/../AVR8/Endpoint_AVR8.h **** 				ENDPOINT_READYWAIT_BusSuspended            = 3, /**< The USB bus has been suspended by the host
 215:LUFA-111009/LUFA/Drivers/USB/Core/AVR8/../AVR8/../AVR8/Endpoint_AVR8.h **** 				                                                 *   no USB endpoint traffic can occur until th
 216:LUFA-111009/LUFA/Drivers/USB/Core/AVR8/../AVR8/../AVR8/Endpoint_AVR8.h **** 				                                                 *   has resumed.
 217:LUFA-111009/LUFA/Drivers/USB/Core/AVR8/../AVR8/../AVR8/Endpoint_AVR8.h **** 				                                                 */
 218:LUFA-111009/LUFA/Drivers/USB/Core/AVR8/../AVR8/../AVR8/Endpoint_AVR8.h **** 				ENDPOINT_READYWAIT_Timeout                 = 4, /**< The host failed to accept or send the next
 219:LUFA-111009/LUFA/Drivers/USB/Core/AVR8/../AVR8/../AVR8/Endpoint_AVR8.h **** 				                                                 *   within the software timeout period set by 
 220:LUFA-111009/LUFA/Drivers/USB/Core/AVR8/../AVR8/../AVR8/Endpoint_AVR8.h **** 				                                                 *   \ref USB_STREAM_TIMEOUT_MS macro.
 221:LUFA-111009/LUFA/Drivers/USB/Core/AVR8/../AVR8/../AVR8/Endpoint_AVR8.h **** 				                                                 */
 222:LUFA-111009/LUFA/Drivers/USB/Core/AVR8/../AVR8/../AVR8/Endpoint_AVR8.h **** 			};
 223:LUFA-111009/LUFA/Drivers/USB/Core/AVR8/../AVR8/../AVR8/Endpoint_AVR8.h **** 
 224:LUFA-111009/LUFA/Drivers/USB/Core/AVR8/../AVR8/../AVR8/Endpoint_AVR8.h **** 		/* Inline Functions: */
 225:LUFA-111009/LUFA/Drivers/USB/Core/AVR8/../AVR8/../AVR8/Endpoint_AVR8.h **** 			/** Configures the specified endpoint number with the given endpoint type, direction, bank size
 226:LUFA-111009/LUFA/Drivers/USB/Core/AVR8/../AVR8/../AVR8/Endpoint_AVR8.h **** 			 *  and banking mode. Once configured, the endpoint may be read from or written to, depending
 227:LUFA-111009/LUFA/Drivers/USB/Core/AVR8/../AVR8/../AVR8/Endpoint_AVR8.h **** 			 *  on its direction.
 228:LUFA-111009/LUFA/Drivers/USB/Core/AVR8/../AVR8/../AVR8/Endpoint_AVR8.h **** 			 *
 229:LUFA-111009/LUFA/Drivers/USB/Core/AVR8/../AVR8/../AVR8/Endpoint_AVR8.h **** 			 *  \param[in] Number     Endpoint number to configure. This must be more than 0 and less than
 230:LUFA-111009/LUFA/Drivers/USB/Core/AVR8/../AVR8/../AVR8/Endpoint_AVR8.h **** 			 *                        \ref ENDPOINT_TOTAL_ENDPOINTS.
 231:LUFA-111009/LUFA/Drivers/USB/Core/AVR8/../AVR8/../AVR8/Endpoint_AVR8.h **** 			 *
 232:LUFA-111009/LUFA/Drivers/USB/Core/AVR8/../AVR8/../AVR8/Endpoint_AVR8.h **** 			 *  \param[in] Type       Type of endpoint to configure, a \c EP_TYPE_* mask. Not all endpoint t
 233:LUFA-111009/LUFA/Drivers/USB/Core/AVR8/../AVR8/../AVR8/Endpoint_AVR8.h **** 			 *                        are available on Low Speed USB devices - refer to the USB 2.0 specific
 234:LUFA-111009/LUFA/Drivers/USB/Core/AVR8/../AVR8/../AVR8/Endpoint_AVR8.h **** 			 *
 235:LUFA-111009/LUFA/Drivers/USB/Core/AVR8/../AVR8/../AVR8/Endpoint_AVR8.h **** 			 *  \param[in] Direction  Endpoint data direction, either \ref ENDPOINT_DIR_OUT or \ref ENDPOINT
 236:LUFA-111009/LUFA/Drivers/USB/Core/AVR8/../AVR8/../AVR8/Endpoint_AVR8.h **** 			 *                        All endpoints (except Control type) are unidirectional - data may only
 237:LUFA-111009/LUFA/Drivers/USB/Core/AVR8/../AVR8/../AVR8/Endpoint_AVR8.h **** 			 *                        from or written to the endpoint bank based on its direction, not both.
 238:LUFA-111009/LUFA/Drivers/USB/Core/AVR8/../AVR8/../AVR8/Endpoint_AVR8.h **** 			 *
 239:LUFA-111009/LUFA/Drivers/USB/Core/AVR8/../AVR8/../AVR8/Endpoint_AVR8.h **** 			 *  \param[in] Size       Size of the endpoint's bank, where packets are stored before they are 
 240:LUFA-111009/LUFA/Drivers/USB/Core/AVR8/../AVR8/../AVR8/Endpoint_AVR8.h **** 			 *                        to the USB host, or after they have been received from the USB host (d
 241:LUFA-111009/LUFA/Drivers/USB/Core/AVR8/../AVR8/../AVR8/Endpoint_AVR8.h **** 			 *                        the endpoint's data direction). The bank size must indicate the maximu
 242:LUFA-111009/LUFA/Drivers/USB/Core/AVR8/../AVR8/../AVR8/Endpoint_AVR8.h **** 			 *                        that the endpoint can handle.
 243:LUFA-111009/LUFA/Drivers/USB/Core/AVR8/../AVR8/../AVR8/Endpoint_AVR8.h **** 			 *
 244:LUFA-111009/LUFA/Drivers/USB/Core/AVR8/../AVR8/../AVR8/Endpoint_AVR8.h **** 			 *  \param[in] Banks      Number of banks to use for the endpoint being configured, an \c ENDPOI
 245:LUFA-111009/LUFA/Drivers/USB/Core/AVR8/../AVR8/../AVR8/Endpoint_AVR8.h **** 			 *                        More banks uses more USB DPRAM, but offers better performance. Isochro
 246:LUFA-111009/LUFA/Drivers/USB/Core/AVR8/../AVR8/../AVR8/Endpoint_AVR8.h **** 			 *                        endpoints <b>must</b> have at least two banks.
 247:LUFA-111009/LUFA/Drivers/USB/Core/AVR8/../AVR8/../AVR8/Endpoint_AVR8.h **** 			 *
 248:LUFA-111009/LUFA/Drivers/USB/Core/AVR8/../AVR8/../AVR8/Endpoint_AVR8.h **** 			 *  \note When the \c ORDERED_EP_CONFIG compile time option is used, Endpoints <b>must</b> be co
 249:LUFA-111009/LUFA/Drivers/USB/Core/AVR8/../AVR8/../AVR8/Endpoint_AVR8.h **** 			 *        ascending order, or bank corruption will occur.
 250:LUFA-111009/LUFA/Drivers/USB/Core/AVR8/../AVR8/../AVR8/Endpoint_AVR8.h **** 			 *        \n\n
 251:LUFA-111009/LUFA/Drivers/USB/Core/AVR8/../AVR8/../AVR8/Endpoint_AVR8.h **** 			 *
 252:LUFA-111009/LUFA/Drivers/USB/Core/AVR8/../AVR8/../AVR8/Endpoint_AVR8.h **** 			 *  \note Different endpoints may have different maximum packet sizes based on the endpoint's in
 253:LUFA-111009/LUFA/Drivers/USB/Core/AVR8/../AVR8/../AVR8/Endpoint_AVR8.h **** 			 *        the chosen microcontroller model's datasheet to determine the maximum bank size for ea
 254:LUFA-111009/LUFA/Drivers/USB/Core/AVR8/../AVR8/../AVR8/Endpoint_AVR8.h **** 			 *        \n\n
 255:LUFA-111009/LUFA/Drivers/USB/Core/AVR8/../AVR8/../AVR8/Endpoint_AVR8.h **** 			 *
 256:LUFA-111009/LUFA/Drivers/USB/Core/AVR8/../AVR8/../AVR8/Endpoint_AVR8.h **** 			 *  \note The default control endpoint should not be manually configured by the user application
 257:LUFA-111009/LUFA/Drivers/USB/Core/AVR8/../AVR8/../AVR8/Endpoint_AVR8.h **** 			 *        it is automatically configured by the library internally.
 258:LUFA-111009/LUFA/Drivers/USB/Core/AVR8/../AVR8/../AVR8/Endpoint_AVR8.h **** 			 *        \n\n
 259:LUFA-111009/LUFA/Drivers/USB/Core/AVR8/../AVR8/../AVR8/Endpoint_AVR8.h **** 			 *
 260:LUFA-111009/LUFA/Drivers/USB/Core/AVR8/../AVR8/../AVR8/Endpoint_AVR8.h **** 			 *  \note This routine will automatically select the specified endpoint upon success. Upon failu
 261:LUFA-111009/LUFA/Drivers/USB/Core/AVR8/../AVR8/../AVR8/Endpoint_AVR8.h **** 			 *        which failed to reconfigure correctly will be selected.
 262:LUFA-111009/LUFA/Drivers/USB/Core/AVR8/../AVR8/../AVR8/Endpoint_AVR8.h **** 			 *
 263:LUFA-111009/LUFA/Drivers/USB/Core/AVR8/../AVR8/../AVR8/Endpoint_AVR8.h **** 			 *  \return Boolean \c true if the configuration succeeded, \c false otherwise.
 264:LUFA-111009/LUFA/Drivers/USB/Core/AVR8/../AVR8/../AVR8/Endpoint_AVR8.h **** 			 */
 265:LUFA-111009/LUFA/Drivers/USB/Core/AVR8/../AVR8/../AVR8/Endpoint_AVR8.h **** 			static inline bool Endpoint_ConfigureEndpoint(const uint8_t Number,
 266:LUFA-111009/LUFA/Drivers/USB/Core/AVR8/../AVR8/../AVR8/Endpoint_AVR8.h **** 			                                              const uint8_t Type,
 267:LUFA-111009/LUFA/Drivers/USB/Core/AVR8/../AVR8/../AVR8/Endpoint_AVR8.h **** 			                                              const uint8_t Direction,
 268:LUFA-111009/LUFA/Drivers/USB/Core/AVR8/../AVR8/../AVR8/Endpoint_AVR8.h **** 			                                              const uint16_t Size,
 269:LUFA-111009/LUFA/Drivers/USB/Core/AVR8/../AVR8/../AVR8/Endpoint_AVR8.h **** 			                                              const uint8_t Banks) ATTR_ALWAYS_INLINE;
 270:LUFA-111009/LUFA/Drivers/USB/Core/AVR8/../AVR8/../AVR8/Endpoint_AVR8.h **** 			static inline bool Endpoint_ConfigureEndpoint(const uint8_t Number,
 271:LUFA-111009/LUFA/Drivers/USB/Core/AVR8/../AVR8/../AVR8/Endpoint_AVR8.h **** 			                                              const uint8_t Type,
 272:LUFA-111009/LUFA/Drivers/USB/Core/AVR8/../AVR8/../AVR8/Endpoint_AVR8.h **** 			                                              const uint8_t Direction,
 273:LUFA-111009/LUFA/Drivers/USB/Core/AVR8/../AVR8/../AVR8/Endpoint_AVR8.h **** 			                                              const uint16_t Size,
 274:LUFA-111009/LUFA/Drivers/USB/Core/AVR8/../AVR8/../AVR8/Endpoint_AVR8.h **** 			                                              const uint8_t Banks)
 275:LUFA-111009/LUFA/Drivers/USB/Core/AVR8/../AVR8/../AVR8/Endpoint_AVR8.h **** 			{
 276:LUFA-111009/LUFA/Drivers/USB/Core/AVR8/../AVR8/../AVR8/Endpoint_AVR8.h **** 				return Endpoint_ConfigureEndpoint_Prv(Number, ((Type << EPTYPE0) | (Direction ? (1 << EPDIR) : 
 277:LUFA-111009/LUFA/Drivers/USB/Core/AVR8/../AVR8/../AVR8/Endpoint_AVR8.h **** 				                                      ((1 << ALLOC) | Banks | Endpoint_BytesToEPSizeMask(Size))
 278:LUFA-111009/LUFA/Drivers/USB/Core/AVR8/../AVR8/../AVR8/Endpoint_AVR8.h **** 			}
 279:LUFA-111009/LUFA/Drivers/USB/Core/AVR8/../AVR8/../AVR8/Endpoint_AVR8.h **** 
 280:LUFA-111009/LUFA/Drivers/USB/Core/AVR8/../AVR8/../AVR8/Endpoint_AVR8.h **** 			/** Indicates the number of bytes currently stored in the current endpoint's selected bank.
 281:LUFA-111009/LUFA/Drivers/USB/Core/AVR8/../AVR8/../AVR8/Endpoint_AVR8.h **** 			 *
 282:LUFA-111009/LUFA/Drivers/USB/Core/AVR8/../AVR8/../AVR8/Endpoint_AVR8.h **** 			 *  \note The return width of this function may differ, depending on the maximum endpoint bank s
 283:LUFA-111009/LUFA/Drivers/USB/Core/AVR8/../AVR8/../AVR8/Endpoint_AVR8.h **** 			 *        of the selected AVR model.
 284:LUFA-111009/LUFA/Drivers/USB/Core/AVR8/../AVR8/../AVR8/Endpoint_AVR8.h **** 			 *
 285:LUFA-111009/LUFA/Drivers/USB/Core/AVR8/../AVR8/../AVR8/Endpoint_AVR8.h **** 			 *  \ingroup Group_EndpointRW_AVR8
 286:LUFA-111009/LUFA/Drivers/USB/Core/AVR8/../AVR8/../AVR8/Endpoint_AVR8.h **** 			 *
 287:LUFA-111009/LUFA/Drivers/USB/Core/AVR8/../AVR8/../AVR8/Endpoint_AVR8.h **** 			 *  \return Total number of bytes in the currently selected Endpoint's FIFO buffer.
 288:LUFA-111009/LUFA/Drivers/USB/Core/AVR8/../AVR8/../AVR8/Endpoint_AVR8.h **** 			 */
 289:LUFA-111009/LUFA/Drivers/USB/Core/AVR8/../AVR8/../AVR8/Endpoint_AVR8.h **** 			static inline uint16_t Endpoint_BytesInEndpoint(void) ATTR_WARN_UNUSED_RESULT ATTR_ALWAYS_INLINE
 290:LUFA-111009/LUFA/Drivers/USB/Core/AVR8/../AVR8/../AVR8/Endpoint_AVR8.h **** 			static inline uint16_t Endpoint_BytesInEndpoint(void)
 291:LUFA-111009/LUFA/Drivers/USB/Core/AVR8/../AVR8/../AVR8/Endpoint_AVR8.h **** 			{
 292:LUFA-111009/LUFA/Drivers/USB/Core/AVR8/../AVR8/../AVR8/Endpoint_AVR8.h **** 				#if defined(USB_SERIES_6_AVR) || defined(USB_SERIES_7_AVR)
 293:LUFA-111009/LUFA/Drivers/USB/Core/AVR8/../AVR8/../AVR8/Endpoint_AVR8.h **** 					return UEBCX;
 294:LUFA-111009/LUFA/Drivers/USB/Core/AVR8/../AVR8/../AVR8/Endpoint_AVR8.h **** 				#elif defined(USB_SERIES_4_AVR)
 295:LUFA-111009/LUFA/Drivers/USB/Core/AVR8/../AVR8/../AVR8/Endpoint_AVR8.h **** 					return (((uint16_t)UEBCHX << 8) | UEBCLX);
 296:LUFA-111009/LUFA/Drivers/USB/Core/AVR8/../AVR8/../AVR8/Endpoint_AVR8.h **** 				#elif defined(USB_SERIES_2_AVR)
 297:LUFA-111009/LUFA/Drivers/USB/Core/AVR8/../AVR8/../AVR8/Endpoint_AVR8.h **** 					return UEBCLX;
 298:LUFA-111009/LUFA/Drivers/USB/Core/AVR8/../AVR8/../AVR8/Endpoint_AVR8.h **** 				#endif
 299:LUFA-111009/LUFA/Drivers/USB/Core/AVR8/../AVR8/../AVR8/Endpoint_AVR8.h **** 			}
 300:LUFA-111009/LUFA/Drivers/USB/Core/AVR8/../AVR8/../AVR8/Endpoint_AVR8.h **** 
 301:LUFA-111009/LUFA/Drivers/USB/Core/AVR8/../AVR8/../AVR8/Endpoint_AVR8.h **** 			/** Get the endpoint address of the currently selected endpoint. This is typically used to save
 302:LUFA-111009/LUFA/Drivers/USB/Core/AVR8/../AVR8/../AVR8/Endpoint_AVR8.h **** 			 *  the currently selected endpoint number so that it can be restored after another endpoint has
 303:LUFA-111009/LUFA/Drivers/USB/Core/AVR8/../AVR8/../AVR8/Endpoint_AVR8.h **** 			 *  been manipulated.
 304:LUFA-111009/LUFA/Drivers/USB/Core/AVR8/../AVR8/../AVR8/Endpoint_AVR8.h **** 			 *
 305:LUFA-111009/LUFA/Drivers/USB/Core/AVR8/../AVR8/../AVR8/Endpoint_AVR8.h **** 			 *  \return Index of the currently selected endpoint.
 306:LUFA-111009/LUFA/Drivers/USB/Core/AVR8/../AVR8/../AVR8/Endpoint_AVR8.h **** 			 */
 307:LUFA-111009/LUFA/Drivers/USB/Core/AVR8/../AVR8/../AVR8/Endpoint_AVR8.h **** 			static inline uint8_t Endpoint_GetCurrentEndpoint(void) ATTR_WARN_UNUSED_RESULT ATTR_ALWAYS_INLI
 308:LUFA-111009/LUFA/Drivers/USB/Core/AVR8/../AVR8/../AVR8/Endpoint_AVR8.h **** 			static inline uint8_t Endpoint_GetCurrentEndpoint(void)
 309:LUFA-111009/LUFA/Drivers/USB/Core/AVR8/../AVR8/../AVR8/Endpoint_AVR8.h **** 			{
 310:LUFA-111009/LUFA/Drivers/USB/Core/AVR8/../AVR8/../AVR8/Endpoint_AVR8.h **** 				#if !defined(CONTROL_ONLY_DEVICE)
 311:LUFA-111009/LUFA/Drivers/USB/Core/AVR8/../AVR8/../AVR8/Endpoint_AVR8.h **** 					return (UENUM & ENDPOINT_EPNUM_MASK);
 312:LUFA-111009/LUFA/Drivers/USB/Core/AVR8/../AVR8/../AVR8/Endpoint_AVR8.h **** 				#else
 313:LUFA-111009/LUFA/Drivers/USB/Core/AVR8/../AVR8/../AVR8/Endpoint_AVR8.h **** 					return ENDPOINT_CONTROLEP;
 314:LUFA-111009/LUFA/Drivers/USB/Core/AVR8/../AVR8/../AVR8/Endpoint_AVR8.h **** 				#endif
 315:LUFA-111009/LUFA/Drivers/USB/Core/AVR8/../AVR8/../AVR8/Endpoint_AVR8.h **** 			}
 316:LUFA-111009/LUFA/Drivers/USB/Core/AVR8/../AVR8/../AVR8/Endpoint_AVR8.h **** 
 317:LUFA-111009/LUFA/Drivers/USB/Core/AVR8/../AVR8/../AVR8/Endpoint_AVR8.h **** 			/** Selects the given endpoint number. If the address from the device descriptors is used, the
 318:LUFA-111009/LUFA/Drivers/USB/Core/AVR8/../AVR8/../AVR8/Endpoint_AVR8.h **** 			 *  value should be masked with the \ref ENDPOINT_EPNUM_MASK constant to extract only the endpoi
 319:LUFA-111009/LUFA/Drivers/USB/Core/AVR8/../AVR8/../AVR8/Endpoint_AVR8.h **** 			 *  number (and discarding the endpoint direction bit).
 320:LUFA-111009/LUFA/Drivers/USB/Core/AVR8/../AVR8/../AVR8/Endpoint_AVR8.h **** 			 *
 321:LUFA-111009/LUFA/Drivers/USB/Core/AVR8/../AVR8/../AVR8/Endpoint_AVR8.h **** 			 *  Any endpoint operations which do not require the endpoint number to be indicated will operat
 322:LUFA-111009/LUFA/Drivers/USB/Core/AVR8/../AVR8/../AVR8/Endpoint_AVR8.h **** 			 *  the currently selected endpoint.
 323:LUFA-111009/LUFA/Drivers/USB/Core/AVR8/../AVR8/../AVR8/Endpoint_AVR8.h **** 			 *
 324:LUFA-111009/LUFA/Drivers/USB/Core/AVR8/../AVR8/../AVR8/Endpoint_AVR8.h **** 			 *  \param[in] EndpointNumber Endpoint number to select.
 325:LUFA-111009/LUFA/Drivers/USB/Core/AVR8/../AVR8/../AVR8/Endpoint_AVR8.h **** 			 */
 326:LUFA-111009/LUFA/Drivers/USB/Core/AVR8/../AVR8/../AVR8/Endpoint_AVR8.h **** 			static inline void Endpoint_SelectEndpoint(const uint8_t EndpointNumber) ATTR_ALWAYS_INLINE;
 327:LUFA-111009/LUFA/Drivers/USB/Core/AVR8/../AVR8/../AVR8/Endpoint_AVR8.h **** 			static inline void Endpoint_SelectEndpoint(const uint8_t EndpointNumber)
 328:LUFA-111009/LUFA/Drivers/USB/Core/AVR8/../AVR8/../AVR8/Endpoint_AVR8.h **** 			{
 329:LUFA-111009/LUFA/Drivers/USB/Core/AVR8/../AVR8/../AVR8/Endpoint_AVR8.h **** 				#if !defined(CONTROL_ONLY_DEVICE)
 330:LUFA-111009/LUFA/Drivers/USB/Core/AVR8/../AVR8/../AVR8/Endpoint_AVR8.h **** 					UENUM = EndpointNumber;
 331:LUFA-111009/LUFA/Drivers/USB/Core/AVR8/../AVR8/../AVR8/Endpoint_AVR8.h **** 				#endif
 332:LUFA-111009/LUFA/Drivers/USB/Core/AVR8/../AVR8/../AVR8/Endpoint_AVR8.h **** 			}
 333:LUFA-111009/LUFA/Drivers/USB/Core/AVR8/../AVR8/../AVR8/Endpoint_AVR8.h **** 
 334:LUFA-111009/LUFA/Drivers/USB/Core/AVR8/../AVR8/../AVR8/Endpoint_AVR8.h **** 			/** Resets the endpoint bank FIFO. This clears all the endpoint banks and resets the USB control
 335:LUFA-111009/LUFA/Drivers/USB/Core/AVR8/../AVR8/../AVR8/Endpoint_AVR8.h **** 			 *  data In and Out pointers to the bank's contents.
 336:LUFA-111009/LUFA/Drivers/USB/Core/AVR8/../AVR8/../AVR8/Endpoint_AVR8.h **** 			 *
 337:LUFA-111009/LUFA/Drivers/USB/Core/AVR8/../AVR8/../AVR8/Endpoint_AVR8.h **** 			 *  \param[in] EndpointNumber Endpoint number whose FIFO buffers are to be reset.
 338:LUFA-111009/LUFA/Drivers/USB/Core/AVR8/../AVR8/../AVR8/Endpoint_AVR8.h **** 			 */
 339:LUFA-111009/LUFA/Drivers/USB/Core/AVR8/../AVR8/../AVR8/Endpoint_AVR8.h **** 			static inline void Endpoint_ResetEndpoint(const uint8_t EndpointNumber) ATTR_ALWAYS_INLINE;
 340:LUFA-111009/LUFA/Drivers/USB/Core/AVR8/../AVR8/../AVR8/Endpoint_AVR8.h **** 			static inline void Endpoint_ResetEndpoint(const uint8_t EndpointNumber)
 341:LUFA-111009/LUFA/Drivers/USB/Core/AVR8/../AVR8/../AVR8/Endpoint_AVR8.h **** 			{
 342:LUFA-111009/LUFA/Drivers/USB/Core/AVR8/../AVR8/../AVR8/Endpoint_AVR8.h **** 				UERST = (1 << EndpointNumber);
 343:LUFA-111009/LUFA/Drivers/USB/Core/AVR8/../AVR8/../AVR8/Endpoint_AVR8.h **** 				UERST = 0;
 344:LUFA-111009/LUFA/Drivers/USB/Core/AVR8/../AVR8/../AVR8/Endpoint_AVR8.h **** 			}
 345:LUFA-111009/LUFA/Drivers/USB/Core/AVR8/../AVR8/../AVR8/Endpoint_AVR8.h **** 
 346:LUFA-111009/LUFA/Drivers/USB/Core/AVR8/../AVR8/../AVR8/Endpoint_AVR8.h **** 			/** Enables the currently selected endpoint so that data can be sent and received through it to
 347:LUFA-111009/LUFA/Drivers/USB/Core/AVR8/../AVR8/../AVR8/Endpoint_AVR8.h **** 			 *  and from a host.
 348:LUFA-111009/LUFA/Drivers/USB/Core/AVR8/../AVR8/../AVR8/Endpoint_AVR8.h **** 			 *
 349:LUFA-111009/LUFA/Drivers/USB/Core/AVR8/../AVR8/../AVR8/Endpoint_AVR8.h **** 			 *  \note Endpoints must first be configured properly via \ref Endpoint_ConfigureEndpoint().
 350:LUFA-111009/LUFA/Drivers/USB/Core/AVR8/../AVR8/../AVR8/Endpoint_AVR8.h **** 			 */
 351:LUFA-111009/LUFA/Drivers/USB/Core/AVR8/../AVR8/../AVR8/Endpoint_AVR8.h **** 			static inline void Endpoint_EnableEndpoint(void) ATTR_ALWAYS_INLINE;
 352:LUFA-111009/LUFA/Drivers/USB/Core/AVR8/../AVR8/../AVR8/Endpoint_AVR8.h **** 			static inline void Endpoint_EnableEndpoint(void)
 353:LUFA-111009/LUFA/Drivers/USB/Core/AVR8/../AVR8/../AVR8/Endpoint_AVR8.h **** 			{
 354:LUFA-111009/LUFA/Drivers/USB/Core/AVR8/../AVR8/../AVR8/Endpoint_AVR8.h **** 				UECONX |= (1 << EPEN);
 355:LUFA-111009/LUFA/Drivers/USB/Core/AVR8/../AVR8/../AVR8/Endpoint_AVR8.h **** 			}
 356:LUFA-111009/LUFA/Drivers/USB/Core/AVR8/../AVR8/../AVR8/Endpoint_AVR8.h **** 
 357:LUFA-111009/LUFA/Drivers/USB/Core/AVR8/../AVR8/../AVR8/Endpoint_AVR8.h **** 			/** Disables the currently selected endpoint so that data cannot be sent and received through it
 358:LUFA-111009/LUFA/Drivers/USB/Core/AVR8/../AVR8/../AVR8/Endpoint_AVR8.h **** 			 *  to and from a host.
 359:LUFA-111009/LUFA/Drivers/USB/Core/AVR8/../AVR8/../AVR8/Endpoint_AVR8.h **** 			 */
 360:LUFA-111009/LUFA/Drivers/USB/Core/AVR8/../AVR8/../AVR8/Endpoint_AVR8.h **** 			static inline void Endpoint_DisableEndpoint(void) ATTR_ALWAYS_INLINE;
 361:LUFA-111009/LUFA/Drivers/USB/Core/AVR8/../AVR8/../AVR8/Endpoint_AVR8.h **** 			static inline void Endpoint_DisableEndpoint(void)
 362:LUFA-111009/LUFA/Drivers/USB/Core/AVR8/../AVR8/../AVR8/Endpoint_AVR8.h **** 			{
 363:LUFA-111009/LUFA/Drivers/USB/Core/AVR8/../AVR8/../AVR8/Endpoint_AVR8.h **** 				UECONX &= ~(1 << EPEN);
 364:LUFA-111009/LUFA/Drivers/USB/Core/AVR8/../AVR8/../AVR8/Endpoint_AVR8.h **** 			}
 365:LUFA-111009/LUFA/Drivers/USB/Core/AVR8/../AVR8/../AVR8/Endpoint_AVR8.h **** 
 366:LUFA-111009/LUFA/Drivers/USB/Core/AVR8/../AVR8/../AVR8/Endpoint_AVR8.h **** 			/** Determines if the currently selected endpoint is enabled, but not necessarily configured.
 367:LUFA-111009/LUFA/Drivers/USB/Core/AVR8/../AVR8/../AVR8/Endpoint_AVR8.h **** 			 *
 368:LUFA-111009/LUFA/Drivers/USB/Core/AVR8/../AVR8/../AVR8/Endpoint_AVR8.h **** 			 * \return Boolean \c true if the currently selected endpoint is enabled, \c false otherwise.
 369:LUFA-111009/LUFA/Drivers/USB/Core/AVR8/../AVR8/../AVR8/Endpoint_AVR8.h **** 			 */
 370:LUFA-111009/LUFA/Drivers/USB/Core/AVR8/../AVR8/../AVR8/Endpoint_AVR8.h **** 			static inline bool Endpoint_IsEnabled(void) ATTR_WARN_UNUSED_RESULT ATTR_ALWAYS_INLINE;
 371:LUFA-111009/LUFA/Drivers/USB/Core/AVR8/../AVR8/../AVR8/Endpoint_AVR8.h **** 			static inline bool Endpoint_IsEnabled(void)
 372:LUFA-111009/LUFA/Drivers/USB/Core/AVR8/../AVR8/../AVR8/Endpoint_AVR8.h **** 			{
 373:LUFA-111009/LUFA/Drivers/USB/Core/AVR8/../AVR8/../AVR8/Endpoint_AVR8.h **** 				return ((UECONX & (1 << EPEN)) ? true : false);
 374:LUFA-111009/LUFA/Drivers/USB/Core/AVR8/../AVR8/../AVR8/Endpoint_AVR8.h **** 			}
 375:LUFA-111009/LUFA/Drivers/USB/Core/AVR8/../AVR8/../AVR8/Endpoint_AVR8.h **** 
 376:LUFA-111009/LUFA/Drivers/USB/Core/AVR8/../AVR8/../AVR8/Endpoint_AVR8.h **** 			/** Retrieves the number of busy banks in the currently selected endpoint, which have been queue
 377:LUFA-111009/LUFA/Drivers/USB/Core/AVR8/../AVR8/../AVR8/Endpoint_AVR8.h **** 			 *  transmission via the \ref Endpoint_ClearIN() command, or are awaiting acknowledgement via th
 378:LUFA-111009/LUFA/Drivers/USB/Core/AVR8/../AVR8/../AVR8/Endpoint_AVR8.h **** 			 *  \ref Endpoint_ClearOUT() command.
 379:LUFA-111009/LUFA/Drivers/USB/Core/AVR8/../AVR8/../AVR8/Endpoint_AVR8.h **** 			 *
 380:LUFA-111009/LUFA/Drivers/USB/Core/AVR8/../AVR8/../AVR8/Endpoint_AVR8.h **** 			 *  \ingroup Group_EndpointPacketManagement_AVR8
 381:LUFA-111009/LUFA/Drivers/USB/Core/AVR8/../AVR8/../AVR8/Endpoint_AVR8.h **** 			 *
 382:LUFA-111009/LUFA/Drivers/USB/Core/AVR8/../AVR8/../AVR8/Endpoint_AVR8.h **** 			 *  \return Total number of busy banks in the selected endpoint.
 383:LUFA-111009/LUFA/Drivers/USB/Core/AVR8/../AVR8/../AVR8/Endpoint_AVR8.h **** 			 */
 384:LUFA-111009/LUFA/Drivers/USB/Core/AVR8/../AVR8/../AVR8/Endpoint_AVR8.h **** 			static inline uint8_t Endpoint_GetBusyBanks(void) ATTR_ALWAYS_INLINE ATTR_WARN_UNUSED_RESULT;
 385:LUFA-111009/LUFA/Drivers/USB/Core/AVR8/../AVR8/../AVR8/Endpoint_AVR8.h **** 			static inline uint8_t Endpoint_GetBusyBanks(void)
 386:LUFA-111009/LUFA/Drivers/USB/Core/AVR8/../AVR8/../AVR8/Endpoint_AVR8.h **** 			{
 387:LUFA-111009/LUFA/Drivers/USB/Core/AVR8/../AVR8/../AVR8/Endpoint_AVR8.h **** 				return (UESTA0X & (0x03 << NBUSYBK0));
 388:LUFA-111009/LUFA/Drivers/USB/Core/AVR8/../AVR8/../AVR8/Endpoint_AVR8.h **** 			}
 389:LUFA-111009/LUFA/Drivers/USB/Core/AVR8/../AVR8/../AVR8/Endpoint_AVR8.h **** 
 390:LUFA-111009/LUFA/Drivers/USB/Core/AVR8/../AVR8/../AVR8/Endpoint_AVR8.h **** 			/** Aborts all pending IN transactions on the currently selected endpoint, once the bank
 391:LUFA-111009/LUFA/Drivers/USB/Core/AVR8/../AVR8/../AVR8/Endpoint_AVR8.h **** 			 *  has been queued for transmission to the host via \ref Endpoint_ClearIN(). This function
 392:LUFA-111009/LUFA/Drivers/USB/Core/AVR8/../AVR8/../AVR8/Endpoint_AVR8.h **** 			 *  will terminate all queued transactions, resetting the endpoint banks ready for a new
 393:LUFA-111009/LUFA/Drivers/USB/Core/AVR8/../AVR8/../AVR8/Endpoint_AVR8.h **** 			 *  packet.
 394:LUFA-111009/LUFA/Drivers/USB/Core/AVR8/../AVR8/../AVR8/Endpoint_AVR8.h **** 			 *
 395:LUFA-111009/LUFA/Drivers/USB/Core/AVR8/../AVR8/../AVR8/Endpoint_AVR8.h **** 			 *  \ingroup Group_EndpointPacketManagement_AVR8
 396:LUFA-111009/LUFA/Drivers/USB/Core/AVR8/../AVR8/../AVR8/Endpoint_AVR8.h **** 			 */
 397:LUFA-111009/LUFA/Drivers/USB/Core/AVR8/../AVR8/../AVR8/Endpoint_AVR8.h **** 			static inline void Endpoint_AbortPendingIN(void)
 398:LUFA-111009/LUFA/Drivers/USB/Core/AVR8/../AVR8/../AVR8/Endpoint_AVR8.h **** 			{
 399:LUFA-111009/LUFA/Drivers/USB/Core/AVR8/../AVR8/../AVR8/Endpoint_AVR8.h **** 				while (Endpoint_GetBusyBanks() != 0)
 400:LUFA-111009/LUFA/Drivers/USB/Core/AVR8/../AVR8/../AVR8/Endpoint_AVR8.h **** 				{
 401:LUFA-111009/LUFA/Drivers/USB/Core/AVR8/../AVR8/../AVR8/Endpoint_AVR8.h **** 					UEINTX |= (1 << RXOUTI);
 402:LUFA-111009/LUFA/Drivers/USB/Core/AVR8/../AVR8/../AVR8/Endpoint_AVR8.h **** 					while (UEINTX & (1 << RXOUTI));
 403:LUFA-111009/LUFA/Drivers/USB/Core/AVR8/../AVR8/../AVR8/Endpoint_AVR8.h **** 				}
 404:LUFA-111009/LUFA/Drivers/USB/Core/AVR8/../AVR8/../AVR8/Endpoint_AVR8.h **** 			}
 405:LUFA-111009/LUFA/Drivers/USB/Core/AVR8/../AVR8/../AVR8/Endpoint_AVR8.h **** 
 406:LUFA-111009/LUFA/Drivers/USB/Core/AVR8/../AVR8/../AVR8/Endpoint_AVR8.h **** 			/** Determines if the currently selected endpoint may be read from (if data is waiting in the en
 407:LUFA-111009/LUFA/Drivers/USB/Core/AVR8/../AVR8/../AVR8/Endpoint_AVR8.h **** 			 *  bank and the endpoint is an OUT direction, or if the bank is not yet full if the endpoint is
 408:LUFA-111009/LUFA/Drivers/USB/Core/AVR8/../AVR8/../AVR8/Endpoint_AVR8.h **** 			 *  direction). This function will return false if an error has occurred in the endpoint, if the
 409:LUFA-111009/LUFA/Drivers/USB/Core/AVR8/../AVR8/../AVR8/Endpoint_AVR8.h **** 			 *  is an OUT direction and no packet (or an empty packet) has been received, or if the endpoint
 410:LUFA-111009/LUFA/Drivers/USB/Core/AVR8/../AVR8/../AVR8/Endpoint_AVR8.h **** 			 *  direction and the endpoint bank is full.
 411:LUFA-111009/LUFA/Drivers/USB/Core/AVR8/../AVR8/../AVR8/Endpoint_AVR8.h **** 			 *
 412:LUFA-111009/LUFA/Drivers/USB/Core/AVR8/../AVR8/../AVR8/Endpoint_AVR8.h **** 			 *  \ingroup Group_EndpointPacketManagement_AVR8
 413:LUFA-111009/LUFA/Drivers/USB/Core/AVR8/../AVR8/../AVR8/Endpoint_AVR8.h **** 			 *
 414:LUFA-111009/LUFA/Drivers/USB/Core/AVR8/../AVR8/../AVR8/Endpoint_AVR8.h **** 			 *  \return Boolean \c true if the currently selected endpoint may be read from or written to, d
 415:LUFA-111009/LUFA/Drivers/USB/Core/AVR8/../AVR8/../AVR8/Endpoint_AVR8.h **** 			 *          on its direction.
 416:LUFA-111009/LUFA/Drivers/USB/Core/AVR8/../AVR8/../AVR8/Endpoint_AVR8.h **** 			 */
 417:LUFA-111009/LUFA/Drivers/USB/Core/AVR8/../AVR8/../AVR8/Endpoint_AVR8.h **** 			static inline bool Endpoint_IsReadWriteAllowed(void) ATTR_WARN_UNUSED_RESULT ATTR_ALWAYS_INLINE;
 418:LUFA-111009/LUFA/Drivers/USB/Core/AVR8/../AVR8/../AVR8/Endpoint_AVR8.h **** 			static inline bool Endpoint_IsReadWriteAllowed(void)
 419:LUFA-111009/LUFA/Drivers/USB/Core/AVR8/../AVR8/../AVR8/Endpoint_AVR8.h **** 			{
 420:LUFA-111009/LUFA/Drivers/USB/Core/AVR8/../AVR8/../AVR8/Endpoint_AVR8.h **** 				return ((UEINTX & (1 << RWAL)) ? true : false);
  78               		.loc 2 420 0
  79 002e 8091 E800 		lds r24,232
  80               	.LBE257:
  81               	.LBE256:
  52:LUFA-111009/LUFA/Drivers/USB/Core/AVR8/EndpointStream_AVR8.c **** 	{
  53:LUFA-111009/LUFA/Drivers/USB/Core/AVR8/EndpointStream_AVR8.c **** 		if (!(Endpoint_IsReadWriteAllowed()))
  82               		.loc 1 53 0
  83 0032 85FD      		sbrc r24,5
  84 0034 00C0      		rjmp .L5
  85               	.LBB258:
  86               	.LBB259:
 421:LUFA-111009/LUFA/Drivers/USB/Core/AVR8/../AVR8/../AVR8/Endpoint_AVR8.h **** 			}
 422:LUFA-111009/LUFA/Drivers/USB/Core/AVR8/../AVR8/../AVR8/Endpoint_AVR8.h **** 
 423:LUFA-111009/LUFA/Drivers/USB/Core/AVR8/../AVR8/../AVR8/Endpoint_AVR8.h **** 			/** Determines if the currently selected endpoint is configured.
 424:LUFA-111009/LUFA/Drivers/USB/Core/AVR8/../AVR8/../AVR8/Endpoint_AVR8.h **** 			 *
 425:LUFA-111009/LUFA/Drivers/USB/Core/AVR8/../AVR8/../AVR8/Endpoint_AVR8.h **** 			 *  \return Boolean \c true if the currently selected endpoint has been configured, \c false oth
 426:LUFA-111009/LUFA/Drivers/USB/Core/AVR8/../AVR8/../AVR8/Endpoint_AVR8.h **** 			 */
 427:LUFA-111009/LUFA/Drivers/USB/Core/AVR8/../AVR8/../AVR8/Endpoint_AVR8.h **** 			static inline bool Endpoint_IsConfigured(void) ATTR_WARN_UNUSED_RESULT ATTR_ALWAYS_INLINE;
 428:LUFA-111009/LUFA/Drivers/USB/Core/AVR8/../AVR8/../AVR8/Endpoint_AVR8.h **** 			static inline bool Endpoint_IsConfigured(void)
 429:LUFA-111009/LUFA/Drivers/USB/Core/AVR8/../AVR8/../AVR8/Endpoint_AVR8.h **** 			{
 430:LUFA-111009/LUFA/Drivers/USB/Core/AVR8/../AVR8/../AVR8/Endpoint_AVR8.h **** 				return ((UESTA0X & (1 << CFGOK)) ? true : false);
 431:LUFA-111009/LUFA/Drivers/USB/Core/AVR8/../AVR8/../AVR8/Endpoint_AVR8.h **** 			}
 432:LUFA-111009/LUFA/Drivers/USB/Core/AVR8/../AVR8/../AVR8/Endpoint_AVR8.h **** 
 433:LUFA-111009/LUFA/Drivers/USB/Core/AVR8/../AVR8/../AVR8/Endpoint_AVR8.h **** 			/** Returns a mask indicating which INTERRUPT type endpoints have interrupted - i.e. their
 434:LUFA-111009/LUFA/Drivers/USB/Core/AVR8/../AVR8/../AVR8/Endpoint_AVR8.h **** 			 *  interrupt duration has elapsed. Which endpoints have interrupted can be determined by
 435:LUFA-111009/LUFA/Drivers/USB/Core/AVR8/../AVR8/../AVR8/Endpoint_AVR8.h **** 			 *  masking the return value against <tt>(1 << <i>{Endpoint Number}</i>)</tt>.
 436:LUFA-111009/LUFA/Drivers/USB/Core/AVR8/../AVR8/../AVR8/Endpoint_AVR8.h **** 			 *
 437:LUFA-111009/LUFA/Drivers/USB/Core/AVR8/../AVR8/../AVR8/Endpoint_AVR8.h **** 			 *  \return Mask whose bits indicate which endpoints have interrupted.
 438:LUFA-111009/LUFA/Drivers/USB/Core/AVR8/../AVR8/../AVR8/Endpoint_AVR8.h **** 			 */
 439:LUFA-111009/LUFA/Drivers/USB/Core/AVR8/../AVR8/../AVR8/Endpoint_AVR8.h **** 			static inline uint8_t Endpoint_GetEndpointInterrupts(void) ATTR_WARN_UNUSED_RESULT ATTR_ALWAYS_I
 440:LUFA-111009/LUFA/Drivers/USB/Core/AVR8/../AVR8/../AVR8/Endpoint_AVR8.h **** 			static inline uint8_t Endpoint_GetEndpointInterrupts(void)
 441:LUFA-111009/LUFA/Drivers/USB/Core/AVR8/../AVR8/../AVR8/Endpoint_AVR8.h **** 			{
 442:LUFA-111009/LUFA/Drivers/USB/Core/AVR8/../AVR8/../AVR8/Endpoint_AVR8.h **** 				return UEINT;
 443:LUFA-111009/LUFA/Drivers/USB/Core/AVR8/../AVR8/../AVR8/Endpoint_AVR8.h **** 			}
 444:LUFA-111009/LUFA/Drivers/USB/Core/AVR8/../AVR8/../AVR8/Endpoint_AVR8.h **** 
 445:LUFA-111009/LUFA/Drivers/USB/Core/AVR8/../AVR8/../AVR8/Endpoint_AVR8.h **** 			/** Determines if the specified endpoint number has interrupted (valid only for INTERRUPT type
 446:LUFA-111009/LUFA/Drivers/USB/Core/AVR8/../AVR8/../AVR8/Endpoint_AVR8.h **** 			 *  endpoints).
 447:LUFA-111009/LUFA/Drivers/USB/Core/AVR8/../AVR8/../AVR8/Endpoint_AVR8.h **** 			 *
 448:LUFA-111009/LUFA/Drivers/USB/Core/AVR8/../AVR8/../AVR8/Endpoint_AVR8.h **** 			 *  \param[in] EndpointNumber  Index of the endpoint whose interrupt flag should be tested.
 449:LUFA-111009/LUFA/Drivers/USB/Core/AVR8/../AVR8/../AVR8/Endpoint_AVR8.h **** 			 *
 450:LUFA-111009/LUFA/Drivers/USB/Core/AVR8/../AVR8/../AVR8/Endpoint_AVR8.h **** 			 *  \return Boolean \c true if the specified endpoint has interrupted, \c false otherwise.
 451:LUFA-111009/LUFA/Drivers/USB/Core/AVR8/../AVR8/../AVR8/Endpoint_AVR8.h **** 			 */
 452:LUFA-111009/LUFA/Drivers/USB/Core/AVR8/../AVR8/../AVR8/Endpoint_AVR8.h **** 			static inline bool Endpoint_HasEndpointInterrupted(const uint8_t EndpointNumber) ATTR_WARN_UNUSE
 453:LUFA-111009/LUFA/Drivers/USB/Core/AVR8/../AVR8/../AVR8/Endpoint_AVR8.h **** 			static inline bool Endpoint_HasEndpointInterrupted(const uint8_t EndpointNumber)
 454:LUFA-111009/LUFA/Drivers/USB/Core/AVR8/../AVR8/../AVR8/Endpoint_AVR8.h **** 			{
 455:LUFA-111009/LUFA/Drivers/USB/Core/AVR8/../AVR8/../AVR8/Endpoint_AVR8.h **** 				return ((Endpoint_GetEndpointInterrupts() & (1 << EndpointNumber)) ? true : false);
 456:LUFA-111009/LUFA/Drivers/USB/Core/AVR8/../AVR8/../AVR8/Endpoint_AVR8.h **** 			}
 457:LUFA-111009/LUFA/Drivers/USB/Core/AVR8/../AVR8/../AVR8/Endpoint_AVR8.h **** 
 458:LUFA-111009/LUFA/Drivers/USB/Core/AVR8/../AVR8/../AVR8/Endpoint_AVR8.h **** 			/** Determines if the selected IN endpoint is ready for a new packet to be sent to the host.
 459:LUFA-111009/LUFA/Drivers/USB/Core/AVR8/../AVR8/../AVR8/Endpoint_AVR8.h **** 			 *
 460:LUFA-111009/LUFA/Drivers/USB/Core/AVR8/../AVR8/../AVR8/Endpoint_AVR8.h **** 			 *  \ingroup Group_EndpointPacketManagement_AVR8
 461:LUFA-111009/LUFA/Drivers/USB/Core/AVR8/../AVR8/../AVR8/Endpoint_AVR8.h **** 			 *
 462:LUFA-111009/LUFA/Drivers/USB/Core/AVR8/../AVR8/../AVR8/Endpoint_AVR8.h **** 			 *  \return Boolean \c true if the current endpoint is ready for an IN packet, \c false otherwis
 463:LUFA-111009/LUFA/Drivers/USB/Core/AVR8/../AVR8/../AVR8/Endpoint_AVR8.h **** 			 */
 464:LUFA-111009/LUFA/Drivers/USB/Core/AVR8/../AVR8/../AVR8/Endpoint_AVR8.h **** 			static inline bool Endpoint_IsINReady(void) ATTR_WARN_UNUSED_RESULT ATTR_ALWAYS_INLINE;
 465:LUFA-111009/LUFA/Drivers/USB/Core/AVR8/../AVR8/../AVR8/Endpoint_AVR8.h **** 			static inline bool Endpoint_IsINReady(void)
 466:LUFA-111009/LUFA/Drivers/USB/Core/AVR8/../AVR8/../AVR8/Endpoint_AVR8.h **** 			{
 467:LUFA-111009/LUFA/Drivers/USB/Core/AVR8/../AVR8/../AVR8/Endpoint_AVR8.h **** 				return ((UEINTX & (1 << TXINI)) ? true : false);
 468:LUFA-111009/LUFA/Drivers/USB/Core/AVR8/../AVR8/../AVR8/Endpoint_AVR8.h **** 			}
 469:LUFA-111009/LUFA/Drivers/USB/Core/AVR8/../AVR8/../AVR8/Endpoint_AVR8.h **** 
 470:LUFA-111009/LUFA/Drivers/USB/Core/AVR8/../AVR8/../AVR8/Endpoint_AVR8.h **** 			/** Determines if the selected OUT endpoint has received new packet from the host.
 471:LUFA-111009/LUFA/Drivers/USB/Core/AVR8/../AVR8/../AVR8/Endpoint_AVR8.h **** 			 *
 472:LUFA-111009/LUFA/Drivers/USB/Core/AVR8/../AVR8/../AVR8/Endpoint_AVR8.h **** 			 *  \ingroup Group_EndpointPacketManagement_AVR8
 473:LUFA-111009/LUFA/Drivers/USB/Core/AVR8/../AVR8/../AVR8/Endpoint_AVR8.h **** 			 *
 474:LUFA-111009/LUFA/Drivers/USB/Core/AVR8/../AVR8/../AVR8/Endpoint_AVR8.h **** 			 *  \return Boolean \c true if current endpoint is has received an OUT packet, \c false otherwis
 475:LUFA-111009/LUFA/Drivers/USB/Core/AVR8/../AVR8/../AVR8/Endpoint_AVR8.h **** 			 */
 476:LUFA-111009/LUFA/Drivers/USB/Core/AVR8/../AVR8/../AVR8/Endpoint_AVR8.h **** 			static inline bool Endpoint_IsOUTReceived(void) ATTR_WARN_UNUSED_RESULT ATTR_ALWAYS_INLINE;
 477:LUFA-111009/LUFA/Drivers/USB/Core/AVR8/../AVR8/../AVR8/Endpoint_AVR8.h **** 			static inline bool Endpoint_IsOUTReceived(void)
 478:LUFA-111009/LUFA/Drivers/USB/Core/AVR8/../AVR8/../AVR8/Endpoint_AVR8.h **** 			{
 479:LUFA-111009/LUFA/Drivers/USB/Core/AVR8/../AVR8/../AVR8/Endpoint_AVR8.h **** 				return ((UEINTX & (1 << RXOUTI)) ? true : false);
 480:LUFA-111009/LUFA/Drivers/USB/Core/AVR8/../AVR8/../AVR8/Endpoint_AVR8.h **** 			}
 481:LUFA-111009/LUFA/Drivers/USB/Core/AVR8/../AVR8/../AVR8/Endpoint_AVR8.h **** 
 482:LUFA-111009/LUFA/Drivers/USB/Core/AVR8/../AVR8/../AVR8/Endpoint_AVR8.h **** 			/** Determines if the current CONTROL type endpoint has received a SETUP packet.
 483:LUFA-111009/LUFA/Drivers/USB/Core/AVR8/../AVR8/../AVR8/Endpoint_AVR8.h **** 			 *
 484:LUFA-111009/LUFA/Drivers/USB/Core/AVR8/../AVR8/../AVR8/Endpoint_AVR8.h **** 			 *  \ingroup Group_EndpointPacketManagement_AVR8
 485:LUFA-111009/LUFA/Drivers/USB/Core/AVR8/../AVR8/../AVR8/Endpoint_AVR8.h **** 			 *
 486:LUFA-111009/LUFA/Drivers/USB/Core/AVR8/../AVR8/../AVR8/Endpoint_AVR8.h **** 			 *  \return Boolean \c true if the selected endpoint has received a SETUP packet, \c false other
 487:LUFA-111009/LUFA/Drivers/USB/Core/AVR8/../AVR8/../AVR8/Endpoint_AVR8.h **** 			 */
 488:LUFA-111009/LUFA/Drivers/USB/Core/AVR8/../AVR8/../AVR8/Endpoint_AVR8.h **** 			static inline bool Endpoint_IsSETUPReceived(void) ATTR_WARN_UNUSED_RESULT ATTR_ALWAYS_INLINE;
 489:LUFA-111009/LUFA/Drivers/USB/Core/AVR8/../AVR8/../AVR8/Endpoint_AVR8.h **** 			static inline bool Endpoint_IsSETUPReceived(void)
 490:LUFA-111009/LUFA/Drivers/USB/Core/AVR8/../AVR8/../AVR8/Endpoint_AVR8.h **** 			{
 491:LUFA-111009/LUFA/Drivers/USB/Core/AVR8/../AVR8/../AVR8/Endpoint_AVR8.h **** 				return ((UEINTX & (1 << RXSTPI)) ? true : false);
 492:LUFA-111009/LUFA/Drivers/USB/Core/AVR8/../AVR8/../AVR8/Endpoint_AVR8.h **** 			}
 493:LUFA-111009/LUFA/Drivers/USB/Core/AVR8/../AVR8/../AVR8/Endpoint_AVR8.h **** 
 494:LUFA-111009/LUFA/Drivers/USB/Core/AVR8/../AVR8/../AVR8/Endpoint_AVR8.h **** 			/** Clears a received SETUP packet on the currently selected CONTROL type endpoint, freeing up t
 495:LUFA-111009/LUFA/Drivers/USB/Core/AVR8/../AVR8/../AVR8/Endpoint_AVR8.h **** 			 *  endpoint for the next packet.
 496:LUFA-111009/LUFA/Drivers/USB/Core/AVR8/../AVR8/../AVR8/Endpoint_AVR8.h **** 			 *
 497:LUFA-111009/LUFA/Drivers/USB/Core/AVR8/../AVR8/../AVR8/Endpoint_AVR8.h **** 			 *  \ingroup Group_EndpointPacketManagement_AVR8
 498:LUFA-111009/LUFA/Drivers/USB/Core/AVR8/../AVR8/../AVR8/Endpoint_AVR8.h **** 			 *
 499:LUFA-111009/LUFA/Drivers/USB/Core/AVR8/../AVR8/../AVR8/Endpoint_AVR8.h **** 			 *  \note This is not applicable for non CONTROL type endpoints.
 500:LUFA-111009/LUFA/Drivers/USB/Core/AVR8/../AVR8/../AVR8/Endpoint_AVR8.h **** 			 */
 501:LUFA-111009/LUFA/Drivers/USB/Core/AVR8/../AVR8/../AVR8/Endpoint_AVR8.h **** 			static inline void Endpoint_ClearSETUP(void) ATTR_ALWAYS_INLINE;
 502:LUFA-111009/LUFA/Drivers/USB/Core/AVR8/../AVR8/../AVR8/Endpoint_AVR8.h **** 			static inline void Endpoint_ClearSETUP(void)
 503:LUFA-111009/LUFA/Drivers/USB/Core/AVR8/../AVR8/../AVR8/Endpoint_AVR8.h **** 			{
 504:LUFA-111009/LUFA/Drivers/USB/Core/AVR8/../AVR8/../AVR8/Endpoint_AVR8.h **** 				UEINTX &= ~(1 << RXSTPI);
 505:LUFA-111009/LUFA/Drivers/USB/Core/AVR8/../AVR8/../AVR8/Endpoint_AVR8.h **** 			}
 506:LUFA-111009/LUFA/Drivers/USB/Core/AVR8/../AVR8/../AVR8/Endpoint_AVR8.h **** 
 507:LUFA-111009/LUFA/Drivers/USB/Core/AVR8/../AVR8/../AVR8/Endpoint_AVR8.h **** 			/** Sends an IN packet to the host on the currently selected endpoint, freeing up the endpoint f
 508:LUFA-111009/LUFA/Drivers/USB/Core/AVR8/../AVR8/../AVR8/Endpoint_AVR8.h **** 			 *  next packet and switching to the alternative endpoint bank if double banked.
 509:LUFA-111009/LUFA/Drivers/USB/Core/AVR8/../AVR8/../AVR8/Endpoint_AVR8.h **** 			 *
 510:LUFA-111009/LUFA/Drivers/USB/Core/AVR8/../AVR8/../AVR8/Endpoint_AVR8.h **** 			 *  \ingroup Group_EndpointPacketManagement_AVR8
 511:LUFA-111009/LUFA/Drivers/USB/Core/AVR8/../AVR8/../AVR8/Endpoint_AVR8.h **** 			 */
 512:LUFA-111009/LUFA/Drivers/USB/Core/AVR8/../AVR8/../AVR8/Endpoint_AVR8.h **** 			static inline void Endpoint_ClearIN(void) ATTR_ALWAYS_INLINE;
 513:LUFA-111009/LUFA/Drivers/USB/Core/AVR8/../AVR8/../AVR8/Endpoint_AVR8.h **** 			static inline void Endpoint_ClearIN(void)
 514:LUFA-111009/LUFA/Drivers/USB/Core/AVR8/../AVR8/../AVR8/Endpoint_AVR8.h **** 			{
 515:LUFA-111009/LUFA/Drivers/USB/Core/AVR8/../AVR8/../AVR8/Endpoint_AVR8.h **** 				#if !defined(CONTROL_ONLY_DEVICE)
 516:LUFA-111009/LUFA/Drivers/USB/Core/AVR8/../AVR8/../AVR8/Endpoint_AVR8.h **** 					UEINTX &= ~((1 << TXINI) | (1 << FIFOCON));
 517:LUFA-111009/LUFA/Drivers/USB/Core/AVR8/../AVR8/../AVR8/Endpoint_AVR8.h **** 				#else
 518:LUFA-111009/LUFA/Drivers/USB/Core/AVR8/../AVR8/../AVR8/Endpoint_AVR8.h **** 					UEINTX &= ~(1 << TXINI);
 519:LUFA-111009/LUFA/Drivers/USB/Core/AVR8/../AVR8/../AVR8/Endpoint_AVR8.h **** 				#endif
 520:LUFA-111009/LUFA/Drivers/USB/Core/AVR8/../AVR8/../AVR8/Endpoint_AVR8.h **** 			}
 521:LUFA-111009/LUFA/Drivers/USB/Core/AVR8/../AVR8/../AVR8/Endpoint_AVR8.h **** 
 522:LUFA-111009/LUFA/Drivers/USB/Core/AVR8/../AVR8/../AVR8/Endpoint_AVR8.h **** 			/** Acknowledges an OUT packet to the host on the currently selected endpoint, freeing up the en
 523:LUFA-111009/LUFA/Drivers/USB/Core/AVR8/../AVR8/../AVR8/Endpoint_AVR8.h **** 			 *  for the next packet and switching to the alternative endpoint bank if double banked.
 524:LUFA-111009/LUFA/Drivers/USB/Core/AVR8/../AVR8/../AVR8/Endpoint_AVR8.h **** 			 *
 525:LUFA-111009/LUFA/Drivers/USB/Core/AVR8/../AVR8/../AVR8/Endpoint_AVR8.h **** 			 *  \ingroup Group_EndpointPacketManagement_AVR8
 526:LUFA-111009/LUFA/Drivers/USB/Core/AVR8/../AVR8/../AVR8/Endpoint_AVR8.h **** 			 */
 527:LUFA-111009/LUFA/Drivers/USB/Core/AVR8/../AVR8/../AVR8/Endpoint_AVR8.h **** 			static inline void Endpoint_ClearOUT(void) ATTR_ALWAYS_INLINE;
 528:LUFA-111009/LUFA/Drivers/USB/Core/AVR8/../AVR8/../AVR8/Endpoint_AVR8.h **** 			static inline void Endpoint_ClearOUT(void)
 529:LUFA-111009/LUFA/Drivers/USB/Core/AVR8/../AVR8/../AVR8/Endpoint_AVR8.h **** 			{
 530:LUFA-111009/LUFA/Drivers/USB/Core/AVR8/../AVR8/../AVR8/Endpoint_AVR8.h **** 				#if !defined(CONTROL_ONLY_DEVICE)
 531:LUFA-111009/LUFA/Drivers/USB/Core/AVR8/../AVR8/../AVR8/Endpoint_AVR8.h **** 					UEINTX &= ~((1 << RXOUTI) | (1 << FIFOCON));
  87               		.loc 2 531 0
  88 0036 8091 E800 		lds r24,232
  89 003a 8B77      		andi r24,lo8(123)
  90 003c 8093 E800 		sts 232,r24
  91               	.LBE259:
  92               	.LBE258:
  54:LUFA-111009/LUFA/Drivers/USB/Core/AVR8/EndpointStream_AVR8.c **** 		{
  55:LUFA-111009/LUFA/Drivers/USB/Core/AVR8/EndpointStream_AVR8.c **** 			Endpoint_ClearOUT();
  56:LUFA-111009/LUFA/Drivers/USB/Core/AVR8/EndpointStream_AVR8.c **** 
  57:LUFA-111009/LUFA/Drivers/USB/Core/AVR8/EndpointStream_AVR8.c **** 			if (BytesProcessed != NULL)
  93               		.loc 1 57 0
  94 0040 2097      		sbiw r28,0
  95 0042 01F0      		breq .L6
  58:LUFA-111009/LUFA/Drivers/USB/Core/AVR8/EndpointStream_AVR8.c **** 			{
  59:LUFA-111009/LUFA/Drivers/USB/Core/AVR8/EndpointStream_AVR8.c **** 				*BytesProcessed += BytesInTransfer;
  96               		.loc 1 59 0
  97 0044 8881      		ld r24,Y
  98 0046 9981      		ldd r25,Y+1
  99 0048 8E0D      		add r24,r14
 100 004a 9F1D      		adc r25,r15
 101 004c 9983      		std Y+1,r25
 102 004e 8883      		st Y,r24
  60:LUFA-111009/LUFA/Drivers/USB/Core/AVR8/EndpointStream_AVR8.c **** 				return ENDPOINT_RWSTREAM_IncompleteTransfer;
 103               		.loc 1 60 0
 104 0050 85E0      		ldi r24,lo8(5)
 105 0052 00C0      		rjmp .L2
 106               	.L6:
  61:LUFA-111009/LUFA/Drivers/USB/Core/AVR8/EndpointStream_AVR8.c **** 			}
  62:LUFA-111009/LUFA/Drivers/USB/Core/AVR8/EndpointStream_AVR8.c **** 
  63:LUFA-111009/LUFA/Drivers/USB/Core/AVR8/EndpointStream_AVR8.c **** 			if ((ErrorCode = Endpoint_WaitUntilReady()))
 107               		.loc 1 63 0
 108 0054 0E94 0000 		call Endpoint_WaitUntilReady
 109               	.LVL6:
 110 0058 8823      		tst r24
 111 005a 01F0      		breq .L4
 112 005c 00C0      		rjmp .L2
 113               	.LVL7:
 114               	.L5:
 115               	.LBB260:
 116               	.LBB261:
 532:LUFA-111009/LUFA/Drivers/USB/Core/AVR8/../AVR8/../AVR8/Endpoint_AVR8.h **** 				#else
 533:LUFA-111009/LUFA/Drivers/USB/Core/AVR8/../AVR8/../AVR8/Endpoint_AVR8.h **** 					UEINTX &= ~(1 << RXOUTI);
 534:LUFA-111009/LUFA/Drivers/USB/Core/AVR8/../AVR8/../AVR8/Endpoint_AVR8.h **** 				#endif
 535:LUFA-111009/LUFA/Drivers/USB/Core/AVR8/../AVR8/../AVR8/Endpoint_AVR8.h **** 			}
 536:LUFA-111009/LUFA/Drivers/USB/Core/AVR8/../AVR8/../AVR8/Endpoint_AVR8.h **** 
 537:LUFA-111009/LUFA/Drivers/USB/Core/AVR8/../AVR8/../AVR8/Endpoint_AVR8.h **** 			/** Stalls the current endpoint, indicating to the host that a logical problem occurred with the
 538:LUFA-111009/LUFA/Drivers/USB/Core/AVR8/../AVR8/../AVR8/Endpoint_AVR8.h **** 			 *  indicated endpoint and that the current transfer sequence should be aborted. This provides a
 539:LUFA-111009/LUFA/Drivers/USB/Core/AVR8/../AVR8/../AVR8/Endpoint_AVR8.h **** 			 *  way for devices to indicate invalid commands to the host so that the current transfer can be
 540:LUFA-111009/LUFA/Drivers/USB/Core/AVR8/../AVR8/../AVR8/Endpoint_AVR8.h **** 			 *  aborted and the host can begin its own recovery sequence.
 541:LUFA-111009/LUFA/Drivers/USB/Core/AVR8/../AVR8/../AVR8/Endpoint_AVR8.h **** 			 *
 542:LUFA-111009/LUFA/Drivers/USB/Core/AVR8/../AVR8/../AVR8/Endpoint_AVR8.h **** 			 *  The currently selected endpoint remains stalled until either the \ref Endpoint_ClearStall() 
 543:LUFA-111009/LUFA/Drivers/USB/Core/AVR8/../AVR8/../AVR8/Endpoint_AVR8.h **** 			 *  is called, or the host issues a CLEAR FEATURE request to the device for the currently select
 544:LUFA-111009/LUFA/Drivers/USB/Core/AVR8/../AVR8/../AVR8/Endpoint_AVR8.h **** 			 *  endpoint.
 545:LUFA-111009/LUFA/Drivers/USB/Core/AVR8/../AVR8/../AVR8/Endpoint_AVR8.h **** 			 *
 546:LUFA-111009/LUFA/Drivers/USB/Core/AVR8/../AVR8/../AVR8/Endpoint_AVR8.h **** 			 *  \ingroup Group_EndpointPacketManagement_AVR8
 547:LUFA-111009/LUFA/Drivers/USB/Core/AVR8/../AVR8/../AVR8/Endpoint_AVR8.h **** 			 */
 548:LUFA-111009/LUFA/Drivers/USB/Core/AVR8/../AVR8/../AVR8/Endpoint_AVR8.h **** 			static inline void Endpoint_StallTransaction(void) ATTR_ALWAYS_INLINE;
 549:LUFA-111009/LUFA/Drivers/USB/Core/AVR8/../AVR8/../AVR8/Endpoint_AVR8.h **** 			static inline void Endpoint_StallTransaction(void)
 550:LUFA-111009/LUFA/Drivers/USB/Core/AVR8/../AVR8/../AVR8/Endpoint_AVR8.h **** 			{
 551:LUFA-111009/LUFA/Drivers/USB/Core/AVR8/../AVR8/../AVR8/Endpoint_AVR8.h **** 				UECONX |= (1 << STALLRQ);
 552:LUFA-111009/LUFA/Drivers/USB/Core/AVR8/../AVR8/../AVR8/Endpoint_AVR8.h **** 			}
 553:LUFA-111009/LUFA/Drivers/USB/Core/AVR8/../AVR8/../AVR8/Endpoint_AVR8.h **** 
 554:LUFA-111009/LUFA/Drivers/USB/Core/AVR8/../AVR8/../AVR8/Endpoint_AVR8.h **** 			/** Clears the STALL condition on the currently selected endpoint.
 555:LUFA-111009/LUFA/Drivers/USB/Core/AVR8/../AVR8/../AVR8/Endpoint_AVR8.h **** 			 *
 556:LUFA-111009/LUFA/Drivers/USB/Core/AVR8/../AVR8/../AVR8/Endpoint_AVR8.h **** 			 *  \ingroup Group_EndpointPacketManagement_AVR8
 557:LUFA-111009/LUFA/Drivers/USB/Core/AVR8/../AVR8/../AVR8/Endpoint_AVR8.h **** 			 */
 558:LUFA-111009/LUFA/Drivers/USB/Core/AVR8/../AVR8/../AVR8/Endpoint_AVR8.h **** 			static inline void Endpoint_ClearStall(void) ATTR_ALWAYS_INLINE;
 559:LUFA-111009/LUFA/Drivers/USB/Core/AVR8/../AVR8/../AVR8/Endpoint_AVR8.h **** 			static inline void Endpoint_ClearStall(void)
 560:LUFA-111009/LUFA/Drivers/USB/Core/AVR8/../AVR8/../AVR8/Endpoint_AVR8.h **** 			{
 561:LUFA-111009/LUFA/Drivers/USB/Core/AVR8/../AVR8/../AVR8/Endpoint_AVR8.h **** 				UECONX |= (1 << STALLRQC);
 562:LUFA-111009/LUFA/Drivers/USB/Core/AVR8/../AVR8/../AVR8/Endpoint_AVR8.h **** 			}
 563:LUFA-111009/LUFA/Drivers/USB/Core/AVR8/../AVR8/../AVR8/Endpoint_AVR8.h **** 
 564:LUFA-111009/LUFA/Drivers/USB/Core/AVR8/../AVR8/../AVR8/Endpoint_AVR8.h **** 			/** Determines if the currently selected endpoint is stalled, false otherwise.
 565:LUFA-111009/LUFA/Drivers/USB/Core/AVR8/../AVR8/../AVR8/Endpoint_AVR8.h **** 			 *
 566:LUFA-111009/LUFA/Drivers/USB/Core/AVR8/../AVR8/../AVR8/Endpoint_AVR8.h **** 			 *  \ingroup Group_EndpointPacketManagement_AVR8
 567:LUFA-111009/LUFA/Drivers/USB/Core/AVR8/../AVR8/../AVR8/Endpoint_AVR8.h **** 			 *
 568:LUFA-111009/LUFA/Drivers/USB/Core/AVR8/../AVR8/../AVR8/Endpoint_AVR8.h **** 			 *  \return Boolean \c true if the currently selected endpoint is stalled, \c false otherwise.
 569:LUFA-111009/LUFA/Drivers/USB/Core/AVR8/../AVR8/../AVR8/Endpoint_AVR8.h **** 			 */
 570:LUFA-111009/LUFA/Drivers/USB/Core/AVR8/../AVR8/../AVR8/Endpoint_AVR8.h **** 			static inline bool Endpoint_IsStalled(void) ATTR_WARN_UNUSED_RESULT ATTR_ALWAYS_INLINE;
 571:LUFA-111009/LUFA/Drivers/USB/Core/AVR8/../AVR8/../AVR8/Endpoint_AVR8.h **** 			static inline bool Endpoint_IsStalled(void)
 572:LUFA-111009/LUFA/Drivers/USB/Core/AVR8/../AVR8/../AVR8/Endpoint_AVR8.h **** 			{
 573:LUFA-111009/LUFA/Drivers/USB/Core/AVR8/../AVR8/../AVR8/Endpoint_AVR8.h **** 				return ((UECONX & (1 << STALLRQ)) ? true : false);
 574:LUFA-111009/LUFA/Drivers/USB/Core/AVR8/../AVR8/../AVR8/Endpoint_AVR8.h **** 			}
 575:LUFA-111009/LUFA/Drivers/USB/Core/AVR8/../AVR8/../AVR8/Endpoint_AVR8.h **** 
 576:LUFA-111009/LUFA/Drivers/USB/Core/AVR8/../AVR8/../AVR8/Endpoint_AVR8.h **** 			/** Resets the data toggle of the currently selected endpoint. */
 577:LUFA-111009/LUFA/Drivers/USB/Core/AVR8/../AVR8/../AVR8/Endpoint_AVR8.h **** 			static inline void Endpoint_ResetDataToggle(void) ATTR_ALWAYS_INLINE;
 578:LUFA-111009/LUFA/Drivers/USB/Core/AVR8/../AVR8/../AVR8/Endpoint_AVR8.h **** 			static inline void Endpoint_ResetDataToggle(void)
 579:LUFA-111009/LUFA/Drivers/USB/Core/AVR8/../AVR8/../AVR8/Endpoint_AVR8.h **** 			{
 580:LUFA-111009/LUFA/Drivers/USB/Core/AVR8/../AVR8/../AVR8/Endpoint_AVR8.h **** 				UECONX |= (1 << RSTDT);
 581:LUFA-111009/LUFA/Drivers/USB/Core/AVR8/../AVR8/../AVR8/Endpoint_AVR8.h **** 			}
 582:LUFA-111009/LUFA/Drivers/USB/Core/AVR8/../AVR8/../AVR8/Endpoint_AVR8.h **** 
 583:LUFA-111009/LUFA/Drivers/USB/Core/AVR8/../AVR8/../AVR8/Endpoint_AVR8.h **** 			/** Determines the currently selected endpoint's direction.
 584:LUFA-111009/LUFA/Drivers/USB/Core/AVR8/../AVR8/../AVR8/Endpoint_AVR8.h **** 			 *
 585:LUFA-111009/LUFA/Drivers/USB/Core/AVR8/../AVR8/../AVR8/Endpoint_AVR8.h **** 			 *  \return The currently selected endpoint's direction, as a \c ENDPOINT_DIR_* mask.
 586:LUFA-111009/LUFA/Drivers/USB/Core/AVR8/../AVR8/../AVR8/Endpoint_AVR8.h **** 			 */
 587:LUFA-111009/LUFA/Drivers/USB/Core/AVR8/../AVR8/../AVR8/Endpoint_AVR8.h **** 			static inline uint8_t Endpoint_GetEndpointDirection(void) ATTR_WARN_UNUSED_RESULT ATTR_ALWAYS_IN
 588:LUFA-111009/LUFA/Drivers/USB/Core/AVR8/../AVR8/../AVR8/Endpoint_AVR8.h **** 			static inline uint8_t Endpoint_GetEndpointDirection(void)
 589:LUFA-111009/LUFA/Drivers/USB/Core/AVR8/../AVR8/../AVR8/Endpoint_AVR8.h **** 			{
 590:LUFA-111009/LUFA/Drivers/USB/Core/AVR8/../AVR8/../AVR8/Endpoint_AVR8.h **** 				return (UECFG0X & (1 << EPDIR)) ? ENDPOINT_DIR_IN : ENDPOINT_DIR_OUT;
 591:LUFA-111009/LUFA/Drivers/USB/Core/AVR8/../AVR8/../AVR8/Endpoint_AVR8.h **** 			}
 592:LUFA-111009/LUFA/Drivers/USB/Core/AVR8/../AVR8/../AVR8/Endpoint_AVR8.h **** 
 593:LUFA-111009/LUFA/Drivers/USB/Core/AVR8/../AVR8/../AVR8/Endpoint_AVR8.h **** 			/** Sets the direction of the currently selected endpoint.
 594:LUFA-111009/LUFA/Drivers/USB/Core/AVR8/../AVR8/../AVR8/Endpoint_AVR8.h **** 			 *
 595:LUFA-111009/LUFA/Drivers/USB/Core/AVR8/../AVR8/../AVR8/Endpoint_AVR8.h **** 			 *  \param[in] DirectionMask  New endpoint direction, as a \c ENDPOINT_DIR_* mask.
 596:LUFA-111009/LUFA/Drivers/USB/Core/AVR8/../AVR8/../AVR8/Endpoint_AVR8.h **** 			 */
 597:LUFA-111009/LUFA/Drivers/USB/Core/AVR8/../AVR8/../AVR8/Endpoint_AVR8.h **** 			static inline void Endpoint_SetEndpointDirection(const uint8_t DirectionMask) ATTR_ALWAYS_INLINE
 598:LUFA-111009/LUFA/Drivers/USB/Core/AVR8/../AVR8/../AVR8/Endpoint_AVR8.h **** 			static inline void Endpoint_SetEndpointDirection(const uint8_t DirectionMask)
 599:LUFA-111009/LUFA/Drivers/USB/Core/AVR8/../AVR8/../AVR8/Endpoint_AVR8.h **** 			{
 600:LUFA-111009/LUFA/Drivers/USB/Core/AVR8/../AVR8/../AVR8/Endpoint_AVR8.h **** 				UECFG0X = ((UECFG0X & ~(1 << EPDIR)) | (DirectionMask ? (1 << EPDIR) : 0));
 601:LUFA-111009/LUFA/Drivers/USB/Core/AVR8/../AVR8/../AVR8/Endpoint_AVR8.h **** 			}
 602:LUFA-111009/LUFA/Drivers/USB/Core/AVR8/../AVR8/../AVR8/Endpoint_AVR8.h **** 
 603:LUFA-111009/LUFA/Drivers/USB/Core/AVR8/../AVR8/../AVR8/Endpoint_AVR8.h **** 			/** Reads one byte from the currently selected endpoint's bank, for OUT direction endpoints.
 604:LUFA-111009/LUFA/Drivers/USB/Core/AVR8/../AVR8/../AVR8/Endpoint_AVR8.h **** 			 *
 605:LUFA-111009/LUFA/Drivers/USB/Core/AVR8/../AVR8/../AVR8/Endpoint_AVR8.h **** 			 *  \ingroup Group_EndpointPrimitiveRW_AVR8
 606:LUFA-111009/LUFA/Drivers/USB/Core/AVR8/../AVR8/../AVR8/Endpoint_AVR8.h **** 			 *
 607:LUFA-111009/LUFA/Drivers/USB/Core/AVR8/../AVR8/../AVR8/Endpoint_AVR8.h **** 			 *  \return Next byte in the currently selected endpoint's FIFO buffer.
 608:LUFA-111009/LUFA/Drivers/USB/Core/AVR8/../AVR8/../AVR8/Endpoint_AVR8.h **** 			 */
 609:LUFA-111009/LUFA/Drivers/USB/Core/AVR8/../AVR8/../AVR8/Endpoint_AVR8.h **** 			static inline uint8_t Endpoint_Read_8(void) ATTR_WARN_UNUSED_RESULT ATTR_ALWAYS_INLINE;
 610:LUFA-111009/LUFA/Drivers/USB/Core/AVR8/../AVR8/../AVR8/Endpoint_AVR8.h **** 			static inline uint8_t Endpoint_Read_8(void)
 611:LUFA-111009/LUFA/Drivers/USB/Core/AVR8/../AVR8/../AVR8/Endpoint_AVR8.h **** 			{
 612:LUFA-111009/LUFA/Drivers/USB/Core/AVR8/../AVR8/../AVR8/Endpoint_AVR8.h **** 				return UEDATX;
 613:LUFA-111009/LUFA/Drivers/USB/Core/AVR8/../AVR8/../AVR8/Endpoint_AVR8.h **** 			}
 614:LUFA-111009/LUFA/Drivers/USB/Core/AVR8/../AVR8/../AVR8/Endpoint_AVR8.h **** 
 615:LUFA-111009/LUFA/Drivers/USB/Core/AVR8/../AVR8/../AVR8/Endpoint_AVR8.h **** 			/** Writes one byte to the currently selected endpoint's bank, for IN direction endpoints.
 616:LUFA-111009/LUFA/Drivers/USB/Core/AVR8/../AVR8/../AVR8/Endpoint_AVR8.h **** 			 *
 617:LUFA-111009/LUFA/Drivers/USB/Core/AVR8/../AVR8/../AVR8/Endpoint_AVR8.h **** 			 *  \ingroup Group_EndpointPrimitiveRW_AVR8
 618:LUFA-111009/LUFA/Drivers/USB/Core/AVR8/../AVR8/../AVR8/Endpoint_AVR8.h **** 			 *
 619:LUFA-111009/LUFA/Drivers/USB/Core/AVR8/../AVR8/../AVR8/Endpoint_AVR8.h **** 			 *  \param[in] Data  Data to write into the the currently selected endpoint's FIFO buffer.
 620:LUFA-111009/LUFA/Drivers/USB/Core/AVR8/../AVR8/../AVR8/Endpoint_AVR8.h **** 			 */
 621:LUFA-111009/LUFA/Drivers/USB/Core/AVR8/../AVR8/../AVR8/Endpoint_AVR8.h **** 			static inline void Endpoint_Write_8(const uint8_t Data) ATTR_ALWAYS_INLINE;
 622:LUFA-111009/LUFA/Drivers/USB/Core/AVR8/../AVR8/../AVR8/Endpoint_AVR8.h **** 			static inline void Endpoint_Write_8(const uint8_t Data)
 623:LUFA-111009/LUFA/Drivers/USB/Core/AVR8/../AVR8/../AVR8/Endpoint_AVR8.h **** 			{
 624:LUFA-111009/LUFA/Drivers/USB/Core/AVR8/../AVR8/../AVR8/Endpoint_AVR8.h **** 				UEDATX = Data;
 625:LUFA-111009/LUFA/Drivers/USB/Core/AVR8/../AVR8/../AVR8/Endpoint_AVR8.h **** 			}
 626:LUFA-111009/LUFA/Drivers/USB/Core/AVR8/../AVR8/../AVR8/Endpoint_AVR8.h **** 
 627:LUFA-111009/LUFA/Drivers/USB/Core/AVR8/../AVR8/../AVR8/Endpoint_AVR8.h **** 			/** Discards one byte from the currently selected endpoint's bank, for OUT direction endpoints.
 628:LUFA-111009/LUFA/Drivers/USB/Core/AVR8/../AVR8/../AVR8/Endpoint_AVR8.h **** 			 *
 629:LUFA-111009/LUFA/Drivers/USB/Core/AVR8/../AVR8/../AVR8/Endpoint_AVR8.h **** 			 *  \ingroup Group_EndpointPrimitiveRW_AVR8
 630:LUFA-111009/LUFA/Drivers/USB/Core/AVR8/../AVR8/../AVR8/Endpoint_AVR8.h **** 			 */
 631:LUFA-111009/LUFA/Drivers/USB/Core/AVR8/../AVR8/../AVR8/Endpoint_AVR8.h **** 			static inline void Endpoint_Discard_8(void) ATTR_ALWAYS_INLINE;
 632:LUFA-111009/LUFA/Drivers/USB/Core/AVR8/../AVR8/../AVR8/Endpoint_AVR8.h **** 			static inline void Endpoint_Discard_8(void)
 633:LUFA-111009/LUFA/Drivers/USB/Core/AVR8/../AVR8/../AVR8/Endpoint_AVR8.h **** 			{
 634:LUFA-111009/LUFA/Drivers/USB/Core/AVR8/../AVR8/../AVR8/Endpoint_AVR8.h **** 				uint8_t Dummy;
 635:LUFA-111009/LUFA/Drivers/USB/Core/AVR8/../AVR8/../AVR8/Endpoint_AVR8.h **** 
 636:LUFA-111009/LUFA/Drivers/USB/Core/AVR8/../AVR8/../AVR8/Endpoint_AVR8.h **** 				Dummy = UEDATX;
 117               		.loc 2 636 0
 118 005e 8091 F100 		lds r24,241
 119               	.LBE261:
 120               	.LBE260:
  64:LUFA-111009/LUFA/Drivers/USB/Core/AVR8/EndpointStream_AVR8.c **** 			  return ErrorCode;
  65:LUFA-111009/LUFA/Drivers/USB/Core/AVR8/EndpointStream_AVR8.c **** 		}
  66:LUFA-111009/LUFA/Drivers/USB/Core/AVR8/EndpointStream_AVR8.c **** 		else
  67:LUFA-111009/LUFA/Drivers/USB/Core/AVR8/EndpointStream_AVR8.c **** 		{
  68:LUFA-111009/LUFA/Drivers/USB/Core/AVR8/EndpointStream_AVR8.c **** 			Endpoint_Discard_8();
  69:LUFA-111009/LUFA/Drivers/USB/Core/AVR8/EndpointStream_AVR8.c **** 
  70:LUFA-111009/LUFA/Drivers/USB/Core/AVR8/EndpointStream_AVR8.c **** 			Length--;
 121               		.loc 1 70 0
 122 0062 0150      		subi r16,1
 123 0064 1109      		sbc r17,__zero_reg__
 124               	.LVL8:
  71:LUFA-111009/LUFA/Drivers/USB/Core/AVR8/EndpointStream_AVR8.c **** 			BytesInTransfer++;
 125               		.loc 1 71 0
 126 0066 8FEF      		ldi r24,-1
 127 0068 E81A      		sub r14,r24
 128 006a F80A      		sbc r15,r24
 129               	.LVL9:
 130 006c 00C0      		rjmp .L4
 131               	.L15:
  72:LUFA-111009/LUFA/Drivers/USB/Core/AVR8/EndpointStream_AVR8.c **** 		}
  73:LUFA-111009/LUFA/Drivers/USB/Core/AVR8/EndpointStream_AVR8.c **** 	}
  74:LUFA-111009/LUFA/Drivers/USB/Core/AVR8/EndpointStream_AVR8.c **** 	
  75:LUFA-111009/LUFA/Drivers/USB/Core/AVR8/EndpointStream_AVR8.c **** 	return ENDPOINT_RWSTREAM_NoError;
 132               		.loc 1 75 0
 133 006e 80E0      		ldi r24,0
 134               	.LVL10:
 135               	.L2:
 136               	/* epilogue start */
  76:LUFA-111009/LUFA/Drivers/USB/Core/AVR8/EndpointStream_AVR8.c **** }
 137               		.loc 1 76 0
 138 0070 DF91      		pop r29
 139 0072 CF91      		pop r28
 140               	.LVL11:
 141 0074 1F91      		pop r17
 142 0076 0F91      		pop r16
 143               	.LVL12:
 144 0078 FF90      		pop r15
 145 007a EF90      		pop r14
 146 007c 0895      		ret
 147               		.cfi_endproc
 148               	.LFE81:
 150               		.section	.text.Endpoint_Null_Stream,"ax",@progbits
 151               	.global	Endpoint_Null_Stream
 153               	Endpoint_Null_Stream:
 154               	.LFB82:
  77:LUFA-111009/LUFA/Drivers/USB/Core/AVR8/EndpointStream_AVR8.c **** 
  78:LUFA-111009/LUFA/Drivers/USB/Core/AVR8/EndpointStream_AVR8.c **** uint8_t Endpoint_Null_Stream(uint16_t Length,
  79:LUFA-111009/LUFA/Drivers/USB/Core/AVR8/EndpointStream_AVR8.c ****                              uint16_t* const BytesProcessed)
  80:LUFA-111009/LUFA/Drivers/USB/Core/AVR8/EndpointStream_AVR8.c **** {
 155               		.loc 1 80 0
 156               		.cfi_startproc
 157               	.LVL13:
 158 0000 EF92      		push r14
 159               	.LCFI6:
 160               		.cfi_def_cfa_offset 3
 161               		.cfi_offset 14, -2
 162 0002 FF92      		push r15
 163               	.LCFI7:
 164               		.cfi_def_cfa_offset 4
 165               		.cfi_offset 15, -3
 166 0004 0F93      		push r16
 167               	.LCFI8:
 168               		.cfi_def_cfa_offset 5
 169               		.cfi_offset 16, -4
 170 0006 1F93      		push r17
 171               	.LCFI9:
 172               		.cfi_def_cfa_offset 6
 173               		.cfi_offset 17, -5
 174 0008 CF93      		push r28
 175               	.LCFI10:
 176               		.cfi_def_cfa_offset 7
 177               		.cfi_offset 28, -6
 178 000a DF93      		push r29
 179               	.LCFI11:
 180               		.cfi_def_cfa_offset 8
 181               		.cfi_offset 29, -7
 182               	/* prologue: function */
 183               	/* frame size = 0 */
 184               	/* stack size = 6 */
 185               	.L__stack_usage = 6
 186 000c 8C01      		movw r16,r24
 187 000e EB01      		movw r28,r22
 188               	.LVL14:
  81:LUFA-111009/LUFA/Drivers/USB/Core/AVR8/EndpointStream_AVR8.c **** 	uint8_t  ErrorCode;
  82:LUFA-111009/LUFA/Drivers/USB/Core/AVR8/EndpointStream_AVR8.c **** 	uint16_t BytesInTransfer = 0;
  83:LUFA-111009/LUFA/Drivers/USB/Core/AVR8/EndpointStream_AVR8.c **** 	
  84:LUFA-111009/LUFA/Drivers/USB/Core/AVR8/EndpointStream_AVR8.c **** 	if ((ErrorCode = Endpoint_WaitUntilReady()))
 189               		.loc 1 84 0
 190 0010 0E94 0000 		call Endpoint_WaitUntilReady
 191               	.LVL15:
 192 0014 8111      		cpse r24,__zero_reg__
 193 0016 00C0      		rjmp .L17
  85:LUFA-111009/LUFA/Drivers/USB/Core/AVR8/EndpointStream_AVR8.c **** 	  return ErrorCode;
  86:LUFA-111009/LUFA/Drivers/USB/Core/AVR8/EndpointStream_AVR8.c **** 	  
  87:LUFA-111009/LUFA/Drivers/USB/Core/AVR8/EndpointStream_AVR8.c **** 	if (BytesProcessed != NULL)
 194               		.loc 1 87 0
 195 0018 2097      		sbiw r28,0
 196 001a 01F0      		breq .L18
  88:LUFA-111009/LUFA/Drivers/USB/Core/AVR8/EndpointStream_AVR8.c **** 	  Length -= *BytesProcessed;
 197               		.loc 1 88 0
 198 001c 8881      		ld r24,Y
 199 001e 9981      		ldd r25,Y+1
 200               	.LVL16:
 201 0020 081B      		sub r16,r24
 202 0022 190B      		sbc r17,r25
 203               	.LVL17:
 204               	.L18:
  80:LUFA-111009/LUFA/Drivers/USB/Core/AVR8/EndpointStream_AVR8.c **** 	uint8_t  ErrorCode;
 205               		.loc 1 80 0 discriminator 1
 206 0024 E12C      		mov r14,__zero_reg__
 207 0026 F12C      		mov r15,__zero_reg__
 208               	.LVL18:
 209               	.L19:
  89:LUFA-111009/LUFA/Drivers/USB/Core/AVR8/EndpointStream_AVR8.c **** 
  90:LUFA-111009/LUFA/Drivers/USB/Core/AVR8/EndpointStream_AVR8.c **** 	while (Length)
 210               		.loc 1 90 0 discriminator 1
 211 0028 0115      		cp r16,__zero_reg__
 212 002a 1105      		cpc r17,__zero_reg__
 213 002c 01F0      		breq .L29
 214               	.LBB262:
 215               	.LBB263:
 420:LUFA-111009/LUFA/Drivers/USB/Core/AVR8/../AVR8/../AVR8/Endpoint_AVR8.h **** 			}
 216               		.loc 2 420 0
 217 002e 8091 E800 		lds r24,232
 218               	.LBE263:
 219               	.LBE262:
  91:LUFA-111009/LUFA/Drivers/USB/Core/AVR8/EndpointStream_AVR8.c **** 	{
  92:LUFA-111009/LUFA/Drivers/USB/Core/AVR8/EndpointStream_AVR8.c **** 		if (!(Endpoint_IsReadWriteAllowed()))
 220               		.loc 1 92 0
 221 0032 85FD      		sbrc r24,5
 222 0034 00C0      		rjmp .L20
 223               	.LBB264:
 224               	.LBB265:
 516:LUFA-111009/LUFA/Drivers/USB/Core/AVR8/../AVR8/../AVR8/Endpoint_AVR8.h **** 				#else
 225               		.loc 2 516 0
 226 0036 8091 E800 		lds r24,232
 227 003a 8E77      		andi r24,lo8(126)
 228 003c 8093 E800 		sts 232,r24
 229               	.LBE265:
 230               	.LBE264:
  93:LUFA-111009/LUFA/Drivers/USB/Core/AVR8/EndpointStream_AVR8.c **** 		{
  94:LUFA-111009/LUFA/Drivers/USB/Core/AVR8/EndpointStream_AVR8.c **** 			Endpoint_ClearIN();
  95:LUFA-111009/LUFA/Drivers/USB/Core/AVR8/EndpointStream_AVR8.c **** 
  96:LUFA-111009/LUFA/Drivers/USB/Core/AVR8/EndpointStream_AVR8.c **** 			if (BytesProcessed != NULL)
 231               		.loc 1 96 0
 232 0040 2097      		sbiw r28,0
 233 0042 01F0      		breq .L21
  97:LUFA-111009/LUFA/Drivers/USB/Core/AVR8/EndpointStream_AVR8.c **** 			{
  98:LUFA-111009/LUFA/Drivers/USB/Core/AVR8/EndpointStream_AVR8.c **** 				*BytesProcessed += BytesInTransfer;
 234               		.loc 1 98 0
 235 0044 8881      		ld r24,Y
 236 0046 9981      		ldd r25,Y+1
 237 0048 8E0D      		add r24,r14
 238 004a 9F1D      		adc r25,r15
 239 004c 9983      		std Y+1,r25
 240 004e 8883      		st Y,r24
  99:LUFA-111009/LUFA/Drivers/USB/Core/AVR8/EndpointStream_AVR8.c **** 				return ENDPOINT_RWSTREAM_IncompleteTransfer;
 241               		.loc 1 99 0
 242 0050 85E0      		ldi r24,lo8(5)
 243 0052 00C0      		rjmp .L17
 244               	.L21:
 100:LUFA-111009/LUFA/Drivers/USB/Core/AVR8/EndpointStream_AVR8.c **** 			}
 101:LUFA-111009/LUFA/Drivers/USB/Core/AVR8/EndpointStream_AVR8.c **** 
 102:LUFA-111009/LUFA/Drivers/USB/Core/AVR8/EndpointStream_AVR8.c **** 			if ((ErrorCode = Endpoint_WaitUntilReady()))
 245               		.loc 1 102 0
 246 0054 0E94 0000 		call Endpoint_WaitUntilReady
 247               	.LVL19:
 248 0058 8823      		tst r24
 249 005a 01F0      		breq .L19
 250 005c 00C0      		rjmp .L17
 251               	.LVL20:
 252               	.L20:
 253               	.LBB266:
 254               	.LBB267:
 624:LUFA-111009/LUFA/Drivers/USB/Core/AVR8/../AVR8/../AVR8/Endpoint_AVR8.h **** 			}
 255               		.loc 2 624 0
 256 005e 1092 F100 		sts 241,__zero_reg__
 257               	.LBE267:
 258               	.LBE266:
 103:LUFA-111009/LUFA/Drivers/USB/Core/AVR8/EndpointStream_AVR8.c **** 			  return ErrorCode;
 104:LUFA-111009/LUFA/Drivers/USB/Core/AVR8/EndpointStream_AVR8.c **** 		}
 105:LUFA-111009/LUFA/Drivers/USB/Core/AVR8/EndpointStream_AVR8.c **** 		else
 106:LUFA-111009/LUFA/Drivers/USB/Core/AVR8/EndpointStream_AVR8.c **** 		{
 107:LUFA-111009/LUFA/Drivers/USB/Core/AVR8/EndpointStream_AVR8.c **** 			Endpoint_Write_8(0);
 108:LUFA-111009/LUFA/Drivers/USB/Core/AVR8/EndpointStream_AVR8.c **** 
 109:LUFA-111009/LUFA/Drivers/USB/Core/AVR8/EndpointStream_AVR8.c **** 			Length--;
 259               		.loc 1 109 0
 260 0062 0150      		subi r16,1
 261 0064 1109      		sbc r17,__zero_reg__
 262               	.LVL21:
 110:LUFA-111009/LUFA/Drivers/USB/Core/AVR8/EndpointStream_AVR8.c **** 			BytesInTransfer++;
 263               		.loc 1 110 0
 264 0066 8FEF      		ldi r24,-1
 265 0068 E81A      		sub r14,r24
 266 006a F80A      		sbc r15,r24
 267               	.LVL22:
 268 006c 00C0      		rjmp .L19
 269               	.LVL23:
 270               	.L29:
 111:LUFA-111009/LUFA/Drivers/USB/Core/AVR8/EndpointStream_AVR8.c **** 		}
 112:LUFA-111009/LUFA/Drivers/USB/Core/AVR8/EndpointStream_AVR8.c **** 	}
 113:LUFA-111009/LUFA/Drivers/USB/Core/AVR8/EndpointStream_AVR8.c **** 	
 114:LUFA-111009/LUFA/Drivers/USB/Core/AVR8/EndpointStream_AVR8.c **** 	return ENDPOINT_RWSTREAM_NoError;
 271               		.loc 1 114 0
 272 006e 80E0      		ldi r24,0
 273               	.LVL24:
 274               	.L17:
 275               	/* epilogue start */
 115:LUFA-111009/LUFA/Drivers/USB/Core/AVR8/EndpointStream_AVR8.c **** }
 276               		.loc 1 115 0
 277 0070 DF91      		pop r29
 278 0072 CF91      		pop r28
 279               	.LVL25:
 280 0074 1F91      		pop r17
 281 0076 0F91      		pop r16
 282               	.LVL26:
 283 0078 FF90      		pop r15
 284 007a EF90      		pop r14
 285 007c 0895      		ret
 286               		.cfi_endproc
 287               	.LFE82:
 289               		.section	.text.Endpoint_Write_Stream_LE,"ax",@progbits
 290               	.global	Endpoint_Write_Stream_LE
 292               	Endpoint_Write_Stream_LE:
 293               	.LFB83:
 294               		.file 3 "LUFA-111009/LUFA/Drivers/USB/Core/AVR8/Template/Template_Endpoint_RW.c"
   1:LUFA-111009/LUFA/Drivers/USB/Core/AVR8/Template/Template_Endpoint_RW.c **** /*
   2:LUFA-111009/LUFA/Drivers/USB/Core/AVR8/Template/Template_Endpoint_RW.c ****              LUFA Library
   3:LUFA-111009/LUFA/Drivers/USB/Core/AVR8/Template/Template_Endpoint_RW.c ****      Copyright (C) Dean Camera, 2011.
   4:LUFA-111009/LUFA/Drivers/USB/Core/AVR8/Template/Template_Endpoint_RW.c **** 
   5:LUFA-111009/LUFA/Drivers/USB/Core/AVR8/Template/Template_Endpoint_RW.c ****   dean [at] fourwalledcubicle [dot] com
   6:LUFA-111009/LUFA/Drivers/USB/Core/AVR8/Template/Template_Endpoint_RW.c ****            www.lufa-lib.org
   7:LUFA-111009/LUFA/Drivers/USB/Core/AVR8/Template/Template_Endpoint_RW.c **** */
   8:LUFA-111009/LUFA/Drivers/USB/Core/AVR8/Template/Template_Endpoint_RW.c **** 
   9:LUFA-111009/LUFA/Drivers/USB/Core/AVR8/Template/Template_Endpoint_RW.c **** /*
  10:LUFA-111009/LUFA/Drivers/USB/Core/AVR8/Template/Template_Endpoint_RW.c ****   Copyright 2011  Dean Camera (dean [at] fourwalledcubicle [dot] com)
  11:LUFA-111009/LUFA/Drivers/USB/Core/AVR8/Template/Template_Endpoint_RW.c **** 
  12:LUFA-111009/LUFA/Drivers/USB/Core/AVR8/Template/Template_Endpoint_RW.c ****   Permission to use, copy, modify, distribute, and sell this
  13:LUFA-111009/LUFA/Drivers/USB/Core/AVR8/Template/Template_Endpoint_RW.c ****   software and its documentation for any purpose is hereby granted
  14:LUFA-111009/LUFA/Drivers/USB/Core/AVR8/Template/Template_Endpoint_RW.c ****   without fee, provided that the above copyright notice appear in
  15:LUFA-111009/LUFA/Drivers/USB/Core/AVR8/Template/Template_Endpoint_RW.c ****   all copies and that both that the copyright notice and this
  16:LUFA-111009/LUFA/Drivers/USB/Core/AVR8/Template/Template_Endpoint_RW.c ****   permission notice and warranty disclaimer appear in supporting
  17:LUFA-111009/LUFA/Drivers/USB/Core/AVR8/Template/Template_Endpoint_RW.c ****   documentation, and that the name of the author not be used in
  18:LUFA-111009/LUFA/Drivers/USB/Core/AVR8/Template/Template_Endpoint_RW.c ****   advertising or publicity pertaining to distribution of the
  19:LUFA-111009/LUFA/Drivers/USB/Core/AVR8/Template/Template_Endpoint_RW.c ****   software without specific, written prior permission.
  20:LUFA-111009/LUFA/Drivers/USB/Core/AVR8/Template/Template_Endpoint_RW.c **** 
  21:LUFA-111009/LUFA/Drivers/USB/Core/AVR8/Template/Template_Endpoint_RW.c ****   The author disclaim all warranties with regard to this
  22:LUFA-111009/LUFA/Drivers/USB/Core/AVR8/Template/Template_Endpoint_RW.c ****   software, including all implied warranties of merchantability
  23:LUFA-111009/LUFA/Drivers/USB/Core/AVR8/Template/Template_Endpoint_RW.c ****   and fitness.  In no event shall the author be liable for any
  24:LUFA-111009/LUFA/Drivers/USB/Core/AVR8/Template/Template_Endpoint_RW.c ****   special, indirect or consequential damages or any damages
  25:LUFA-111009/LUFA/Drivers/USB/Core/AVR8/Template/Template_Endpoint_RW.c ****   whatsoever resulting from loss of use, data or profits, whether
  26:LUFA-111009/LUFA/Drivers/USB/Core/AVR8/Template/Template_Endpoint_RW.c ****   in an action of contract, negligence or other tortious action,
  27:LUFA-111009/LUFA/Drivers/USB/Core/AVR8/Template/Template_Endpoint_RW.c ****   arising out of or in connection with the use or performance of
  28:LUFA-111009/LUFA/Drivers/USB/Core/AVR8/Template/Template_Endpoint_RW.c ****   this software.
  29:LUFA-111009/LUFA/Drivers/USB/Core/AVR8/Template/Template_Endpoint_RW.c **** */
  30:LUFA-111009/LUFA/Drivers/USB/Core/AVR8/Template/Template_Endpoint_RW.c **** 
  31:LUFA-111009/LUFA/Drivers/USB/Core/AVR8/Template/Template_Endpoint_RW.c **** #if defined(TEMPLATE_FUNC_NAME)
  32:LUFA-111009/LUFA/Drivers/USB/Core/AVR8/Template/Template_Endpoint_RW.c **** 
  33:LUFA-111009/LUFA/Drivers/USB/Core/AVR8/Template/Template_Endpoint_RW.c **** uint8_t TEMPLATE_FUNC_NAME (TEMPLATE_BUFFER_TYPE const Buffer,
  34:LUFA-111009/LUFA/Drivers/USB/Core/AVR8/Template/Template_Endpoint_RW.c ****                             uint16_t Length,
  35:LUFA-111009/LUFA/Drivers/USB/Core/AVR8/Template/Template_Endpoint_RW.c ****                             uint16_t* const BytesProcessed)
  36:LUFA-111009/LUFA/Drivers/USB/Core/AVR8/Template/Template_Endpoint_RW.c **** {
 295               		.loc 3 36 0
 296               		.cfi_startproc
 297               	.LVL27:
 298 0000 CF92      		push r12
 299               	.LCFI12:
 300               		.cfi_def_cfa_offset 3
 301               		.cfi_offset 12, -2
 302 0002 DF92      		push r13
 303               	.LCFI13:
 304               		.cfi_def_cfa_offset 4
 305               		.cfi_offset 13, -3
 306 0004 EF92      		push r14
 307               	.LCFI14:
 308               		.cfi_def_cfa_offset 5
 309               		.cfi_offset 14, -4
 310 0006 FF92      		push r15
 311               	.LCFI15:
 312               		.cfi_def_cfa_offset 6
 313               		.cfi_offset 15, -5
 314 0008 0F93      		push r16
 315               	.LCFI16:
 316               		.cfi_def_cfa_offset 7
 317               		.cfi_offset 16, -6
 318 000a 1F93      		push r17
 319               	.LCFI17:
 320               		.cfi_def_cfa_offset 8
 321               		.cfi_offset 17, -7
 322 000c CF93      		push r28
 323               	.LCFI18:
 324               		.cfi_def_cfa_offset 9
 325               		.cfi_offset 28, -8
 326 000e DF93      		push r29
 327               	.LCFI19:
 328               		.cfi_def_cfa_offset 10
 329               		.cfi_offset 29, -9
 330               	/* prologue: function */
 331               	/* frame size = 0 */
 332               	/* stack size = 8 */
 333               	.L__stack_usage = 8
 334 0010 7C01      		movw r14,r24
 335 0012 8B01      		movw r16,r22
 336 0014 EA01      		movw r28,r20
 337               	.LVL28:
  37:LUFA-111009/LUFA/Drivers/USB/Core/AVR8/Template/Template_Endpoint_RW.c **** 	uint8_t* DataStream      = ((uint8_t*)Buffer + TEMPLATE_BUFFER_OFFSET(Length));
  38:LUFA-111009/LUFA/Drivers/USB/Core/AVR8/Template/Template_Endpoint_RW.c **** 	uint16_t BytesInTransfer = 0;
  39:LUFA-111009/LUFA/Drivers/USB/Core/AVR8/Template/Template_Endpoint_RW.c **** 	uint8_t  ErrorCode;
  40:LUFA-111009/LUFA/Drivers/USB/Core/AVR8/Template/Template_Endpoint_RW.c **** 
  41:LUFA-111009/LUFA/Drivers/USB/Core/AVR8/Template/Template_Endpoint_RW.c **** 	if ((ErrorCode = Endpoint_WaitUntilReady()))
 338               		.loc 3 41 0
 339 0016 0E94 0000 		call Endpoint_WaitUntilReady
 340               	.LVL29:
 341 001a 8111      		cpse r24,__zero_reg__
 342 001c 00C0      		rjmp .L31
  42:LUFA-111009/LUFA/Drivers/USB/Core/AVR8/Template/Template_Endpoint_RW.c **** 	  return ErrorCode;
  43:LUFA-111009/LUFA/Drivers/USB/Core/AVR8/Template/Template_Endpoint_RW.c **** 
  44:LUFA-111009/LUFA/Drivers/USB/Core/AVR8/Template/Template_Endpoint_RW.c **** 	if (BytesProcessed != NULL)
 343               		.loc 3 44 0
 344 001e 2097      		sbiw r28,0
 345 0020 01F0      		breq .L32
  45:LUFA-111009/LUFA/Drivers/USB/Core/AVR8/Template/Template_Endpoint_RW.c **** 	{
  46:LUFA-111009/LUFA/Drivers/USB/Core/AVR8/Template/Template_Endpoint_RW.c **** 		Length -= *BytesProcessed;
 346               		.loc 3 46 0
 347 0022 8881      		ld r24,Y
 348 0024 9981      		ldd r25,Y+1
 349               	.LVL30:
 350 0026 081B      		sub r16,r24
 351 0028 190B      		sbc r17,r25
 352               	.LVL31:
  47:LUFA-111009/LUFA/Drivers/USB/Core/AVR8/Template/Template_Endpoint_RW.c **** 		TEMPLATE_BUFFER_MOVE(DataStream, *BytesProcessed);
 353               		.loc 3 47 0
 354 002a E80E      		add r14,r24
 355 002c F91E      		adc r15,r25
 356               	.LVL32:
 357               	.L32:
  37:LUFA-111009/LUFA/Drivers/USB/Core/AVR8/Template/Template_Endpoint_RW.c **** 	uint16_t BytesInTransfer = 0;
 358               		.loc 3 37 0 discriminator 1
 359 002e C12C      		mov r12,__zero_reg__
 360 0030 D12C      		mov r13,__zero_reg__
 361               	.LVL33:
 362               	.L33:
  48:LUFA-111009/LUFA/Drivers/USB/Core/AVR8/Template/Template_Endpoint_RW.c **** 	}
  49:LUFA-111009/LUFA/Drivers/USB/Core/AVR8/Template/Template_Endpoint_RW.c **** 
  50:LUFA-111009/LUFA/Drivers/USB/Core/AVR8/Template/Template_Endpoint_RW.c **** 	while (Length)
 363               		.loc 3 50 0 discriminator 1
 364 0032 0115      		cp r16,__zero_reg__
 365 0034 1105      		cpc r17,__zero_reg__
 366 0036 01F0      		breq .L41
 367               	.LBB268:
 368               	.LBB269:
 420:LUFA-111009/LUFA/Drivers/USB/Core/AVR8/../AVR8/../AVR8/Endpoint_AVR8.h **** 			}
 369               		.loc 2 420 0
 370 0038 8091 E800 		lds r24,232
 371               	.LBE269:
 372               	.LBE268:
  51:LUFA-111009/LUFA/Drivers/USB/Core/AVR8/Template/Template_Endpoint_RW.c **** 	{
  52:LUFA-111009/LUFA/Drivers/USB/Core/AVR8/Template/Template_Endpoint_RW.c **** 		if (!(Endpoint_IsReadWriteAllowed()))
 373               		.loc 3 52 0
 374 003c 85FD      		sbrc r24,5
 375 003e 00C0      		rjmp .L34
 376               	.LBB270:
 377               	.LBB271:
 516:LUFA-111009/LUFA/Drivers/USB/Core/AVR8/../AVR8/../AVR8/Endpoint_AVR8.h **** 				#else
 378               		.loc 2 516 0
 379 0040 8091 E800 		lds r24,232
 380 0044 8E77      		andi r24,lo8(126)
 381 0046 8093 E800 		sts 232,r24
 382               	.LBE271:
 383               	.LBE270:
  53:LUFA-111009/LUFA/Drivers/USB/Core/AVR8/Template/Template_Endpoint_RW.c **** 		{
  54:LUFA-111009/LUFA/Drivers/USB/Core/AVR8/Template/Template_Endpoint_RW.c **** 			TEMPLATE_CLEAR_ENDPOINT();
  55:LUFA-111009/LUFA/Drivers/USB/Core/AVR8/Template/Template_Endpoint_RW.c **** 
  56:LUFA-111009/LUFA/Drivers/USB/Core/AVR8/Template/Template_Endpoint_RW.c **** 			#if !defined(INTERRUPT_CONTROL_ENDPOINT)
  57:LUFA-111009/LUFA/Drivers/USB/Core/AVR8/Template/Template_Endpoint_RW.c **** 			USB_USBTask();
 384               		.loc 3 57 0
 385 004a 0E94 0000 		call USB_USBTask
 386               	.LVL34:
  58:LUFA-111009/LUFA/Drivers/USB/Core/AVR8/Template/Template_Endpoint_RW.c **** 			#endif
  59:LUFA-111009/LUFA/Drivers/USB/Core/AVR8/Template/Template_Endpoint_RW.c **** 
  60:LUFA-111009/LUFA/Drivers/USB/Core/AVR8/Template/Template_Endpoint_RW.c **** 			if (BytesProcessed != NULL)
 387               		.loc 3 60 0
 388 004e 2097      		sbiw r28,0
 389 0050 01F0      		breq .L35
  61:LUFA-111009/LUFA/Drivers/USB/Core/AVR8/Template/Template_Endpoint_RW.c **** 			{
  62:LUFA-111009/LUFA/Drivers/USB/Core/AVR8/Template/Template_Endpoint_RW.c **** 				*BytesProcessed += BytesInTransfer;
 390               		.loc 3 62 0
 391 0052 8881      		ld r24,Y
 392 0054 9981      		ldd r25,Y+1
 393 0056 8C0D      		add r24,r12
 394 0058 9D1D      		adc r25,r13
 395 005a 9983      		std Y+1,r25
 396 005c 8883      		st Y,r24
  63:LUFA-111009/LUFA/Drivers/USB/Core/AVR8/Template/Template_Endpoint_RW.c **** 				return ENDPOINT_RWSTREAM_IncompleteTransfer;
 397               		.loc 3 63 0
 398 005e 85E0      		ldi r24,lo8(5)
 399 0060 00C0      		rjmp .L31
 400               	.L35:
  64:LUFA-111009/LUFA/Drivers/USB/Core/AVR8/Template/Template_Endpoint_RW.c **** 			}
  65:LUFA-111009/LUFA/Drivers/USB/Core/AVR8/Template/Template_Endpoint_RW.c **** 
  66:LUFA-111009/LUFA/Drivers/USB/Core/AVR8/Template/Template_Endpoint_RW.c **** 			if ((ErrorCode = Endpoint_WaitUntilReady()))
 401               		.loc 3 66 0
 402 0062 0E94 0000 		call Endpoint_WaitUntilReady
 403               	.LVL35:
 404 0066 8823      		tst r24
 405 0068 01F0      		breq .L33
 406 006a 00C0      		rjmp .L31
 407               	.LVL36:
 408               	.L34:
  67:LUFA-111009/LUFA/Drivers/USB/Core/AVR8/Template/Template_Endpoint_RW.c **** 			  return ErrorCode;
  68:LUFA-111009/LUFA/Drivers/USB/Core/AVR8/Template/Template_Endpoint_RW.c **** 		}
  69:LUFA-111009/LUFA/Drivers/USB/Core/AVR8/Template/Template_Endpoint_RW.c **** 		else
  70:LUFA-111009/LUFA/Drivers/USB/Core/AVR8/Template/Template_Endpoint_RW.c **** 		{
  71:LUFA-111009/LUFA/Drivers/USB/Core/AVR8/Template/Template_Endpoint_RW.c **** 			TEMPLATE_TRANSFER_BYTE(DataStream);
 409               		.loc 3 71 0
 410 006c F701      		movw r30,r14
 411 006e 8191      		ld r24,Z+
 412 0070 7F01      		movw r14,r30
 413               	.LVL37:
 414               	.LBB272:
 415               	.LBB273:
 624:LUFA-111009/LUFA/Drivers/USB/Core/AVR8/../AVR8/../AVR8/Endpoint_AVR8.h **** 			}
 416               		.loc 2 624 0
 417 0072 8093 F100 		sts 241,r24
 418               	.LVL38:
 419               	.LBE273:
 420               	.LBE272:
  72:LUFA-111009/LUFA/Drivers/USB/Core/AVR8/Template/Template_Endpoint_RW.c **** 			TEMPLATE_BUFFER_MOVE(DataStream, 1);
  73:LUFA-111009/LUFA/Drivers/USB/Core/AVR8/Template/Template_Endpoint_RW.c **** 			Length--;
 421               		.loc 3 73 0
 422 0076 0150      		subi r16,1
 423 0078 1109      		sbc r17,__zero_reg__
 424               	.LVL39:
  74:LUFA-111009/LUFA/Drivers/USB/Core/AVR8/Template/Template_Endpoint_RW.c **** 			BytesInTransfer++;
 425               		.loc 3 74 0
 426 007a FFEF      		ldi r31,-1
 427 007c CF1A      		sub r12,r31
 428 007e DF0A      		sbc r13,r31
 429               	.LVL40:
 430 0080 00C0      		rjmp .L33
 431               	.LVL41:
 432               	.L41:
  75:LUFA-111009/LUFA/Drivers/USB/Core/AVR8/Template/Template_Endpoint_RW.c **** 		}
  76:LUFA-111009/LUFA/Drivers/USB/Core/AVR8/Template/Template_Endpoint_RW.c **** 	}
  77:LUFA-111009/LUFA/Drivers/USB/Core/AVR8/Template/Template_Endpoint_RW.c **** 
  78:LUFA-111009/LUFA/Drivers/USB/Core/AVR8/Template/Template_Endpoint_RW.c **** 	return ENDPOINT_RWSTREAM_NoError;
 433               		.loc 3 78 0
 434 0082 80E0      		ldi r24,0
 435               	.LVL42:
 436               	.L31:
 437               	/* epilogue start */
  79:LUFA-111009/LUFA/Drivers/USB/Core/AVR8/Template/Template_Endpoint_RW.c **** }
 438               		.loc 3 79 0
 439 0084 DF91      		pop r29
 440 0086 CF91      		pop r28
 441               	.LVL43:
 442 0088 1F91      		pop r17
 443 008a 0F91      		pop r16
 444               	.LVL44:
 445 008c FF90      		pop r15
 446 008e EF90      		pop r14
 447               	.LVL45:
 448 0090 DF90      		pop r13
 449 0092 CF90      		pop r12
 450 0094 0895      		ret
 451               		.cfi_endproc
 452               	.LFE83:
 454               		.section	.text.Endpoint_Write_Stream_BE,"ax",@progbits
 455               	.global	Endpoint_Write_Stream_BE
 457               	Endpoint_Write_Stream_BE:
 458               	.LFB84:
  36:LUFA-111009/LUFA/Drivers/USB/Core/AVR8/Template/Template_Endpoint_RW.c **** 	uint8_t* DataStream      = ((uint8_t*)Buffer + TEMPLATE_BUFFER_OFFSET(Length));
 459               		.loc 3 36 0
 460               		.cfi_startproc
 461               	.LVL46:
 462 0000 CF92      		push r12
 463               	.LCFI20:
 464               		.cfi_def_cfa_offset 3
 465               		.cfi_offset 12, -2
 466 0002 DF92      		push r13
 467               	.LCFI21:
 468               		.cfi_def_cfa_offset 4
 469               		.cfi_offset 13, -3
 470 0004 EF92      		push r14
 471               	.LCFI22:
 472               		.cfi_def_cfa_offset 5
 473               		.cfi_offset 14, -4
 474 0006 FF92      		push r15
 475               	.LCFI23:
 476               		.cfi_def_cfa_offset 6
 477               		.cfi_offset 15, -5
 478 0008 0F93      		push r16
 479               	.LCFI24:
 480               		.cfi_def_cfa_offset 7
 481               		.cfi_offset 16, -6
 482 000a 1F93      		push r17
 483               	.LCFI25:
 484               		.cfi_def_cfa_offset 8
 485               		.cfi_offset 17, -7
 486 000c CF93      		push r28
 487               	.LCFI26:
 488               		.cfi_def_cfa_offset 9
 489               		.cfi_offset 28, -8
 490 000e DF93      		push r29
 491               	.LCFI27:
 492               		.cfi_def_cfa_offset 10
 493               		.cfi_offset 29, -9
 494               	/* prologue: function */
 495               	/* frame size = 0 */
 496               	/* stack size = 8 */
 497               	.L__stack_usage = 8
 498 0010 6C01      		movw r12,r24
 499 0012 8B01      		movw r16,r22
 500 0014 7A01      		movw r14,r20
 501               	.LVL47:
  41:LUFA-111009/LUFA/Drivers/USB/Core/AVR8/Template/Template_Endpoint_RW.c **** 	  return ErrorCode;
 502               		.loc 3 41 0
 503 0016 0E94 0000 		call Endpoint_WaitUntilReady
 504               	.LVL48:
 505 001a 8111      		cpse r24,__zero_reg__
 506 001c 00C0      		rjmp .L43
  37:LUFA-111009/LUFA/Drivers/USB/Core/AVR8/Template/Template_Endpoint_RW.c **** 	uint16_t BytesInTransfer = 0;
 507               		.loc 3 37 0
 508 001e E801      		movw r28,r16
 509 0020 2197      		sbiw r28,1
 510               	.LVL49:
 511 0022 CC0D      		add r28,r12
 512 0024 DD1D      		adc r29,r13
 513               	.LVL50:
  44:LUFA-111009/LUFA/Drivers/USB/Core/AVR8/Template/Template_Endpoint_RW.c **** 	{
 514               		.loc 3 44 0
 515 0026 E114      		cp r14,__zero_reg__
 516 0028 F104      		cpc r15,__zero_reg__
 517 002a 01F0      		breq .L44
  46:LUFA-111009/LUFA/Drivers/USB/Core/AVR8/Template/Template_Endpoint_RW.c **** 		TEMPLATE_BUFFER_MOVE(DataStream, *BytesProcessed);
 518               		.loc 3 46 0
 519 002c F701      		movw r30,r14
 520 002e 8081      		ld r24,Z
 521 0030 9181      		ldd r25,Z+1
 522               	.LVL51:
 523 0032 081B      		sub r16,r24
 524 0034 190B      		sbc r17,r25
 525               	.LVL52:
  47:LUFA-111009/LUFA/Drivers/USB/Core/AVR8/Template/Template_Endpoint_RW.c **** 	}
 526               		.loc 3 47 0
 527 0036 C81B      		sub r28,r24
 528 0038 D90B      		sbc r29,r25
 529               	.LVL53:
 530               	.L44:
  36:LUFA-111009/LUFA/Drivers/USB/Core/AVR8/Template/Template_Endpoint_RW.c **** 	uint8_t* DataStream      = ((uint8_t*)Buffer + TEMPLATE_BUFFER_OFFSET(Length));
 531               		.loc 3 36 0 discriminator 1
 532 003a C12C      		mov r12,__zero_reg__
 533 003c D12C      		mov r13,__zero_reg__
 534               	.LVL54:
 535               	.L45:
  50:LUFA-111009/LUFA/Drivers/USB/Core/AVR8/Template/Template_Endpoint_RW.c **** 	{
 536               		.loc 3 50 0 discriminator 1
 537 003e 0115      		cp r16,__zero_reg__
 538 0040 1105      		cpc r17,__zero_reg__
 539 0042 01F0      		breq .L55
 540               	.LBB274:
 541               	.LBB275:
 420:LUFA-111009/LUFA/Drivers/USB/Core/AVR8/../AVR8/../AVR8/Endpoint_AVR8.h **** 			}
 542               		.loc 2 420 0
 543 0044 8091 E800 		lds r24,232
 544               	.LBE275:
 545               	.LBE274:
  52:LUFA-111009/LUFA/Drivers/USB/Core/AVR8/Template/Template_Endpoint_RW.c **** 		{
 546               		.loc 3 52 0
 547 0048 85FD      		sbrc r24,5
 548 004a 00C0      		rjmp .L46
 549               	.LBB276:
 550               	.LBB277:
 516:LUFA-111009/LUFA/Drivers/USB/Core/AVR8/../AVR8/../AVR8/Endpoint_AVR8.h **** 				#else
 551               		.loc 2 516 0
 552 004c 8091 E800 		lds r24,232
 553 0050 8E77      		andi r24,lo8(126)
 554 0052 8093 E800 		sts 232,r24
 555               	.LBE277:
 556               	.LBE276:
  57:LUFA-111009/LUFA/Drivers/USB/Core/AVR8/Template/Template_Endpoint_RW.c **** 			#endif
 557               		.loc 3 57 0
 558 0056 0E94 0000 		call USB_USBTask
 559               	.LVL55:
  60:LUFA-111009/LUFA/Drivers/USB/Core/AVR8/Template/Template_Endpoint_RW.c **** 			{
 560               		.loc 3 60 0
 561 005a E114      		cp r14,__zero_reg__
 562 005c F104      		cpc r15,__zero_reg__
 563 005e 01F0      		breq .L47
  62:LUFA-111009/LUFA/Drivers/USB/Core/AVR8/Template/Template_Endpoint_RW.c **** 				return ENDPOINT_RWSTREAM_IncompleteTransfer;
 564               		.loc 3 62 0
 565 0060 F701      		movw r30,r14
 566 0062 8081      		ld r24,Z
 567 0064 9181      		ldd r25,Z+1
 568 0066 8C0D      		add r24,r12
 569 0068 9D1D      		adc r25,r13
 570 006a 9183      		std Z+1,r25
 571 006c 8083      		st Z,r24
  63:LUFA-111009/LUFA/Drivers/USB/Core/AVR8/Template/Template_Endpoint_RW.c **** 			}
 572               		.loc 3 63 0
 573 006e 85E0      		ldi r24,lo8(5)
 574 0070 00C0      		rjmp .L43
 575               	.L47:
  66:LUFA-111009/LUFA/Drivers/USB/Core/AVR8/Template/Template_Endpoint_RW.c **** 			  return ErrorCode;
 576               		.loc 3 66 0
 577 0072 0E94 0000 		call Endpoint_WaitUntilReady
 578               	.LVL56:
 579 0076 8823      		tst r24
 580 0078 01F0      		breq .L45
 581 007a 00C0      		rjmp .L43
 582               	.LVL57:
 583               	.L46:
  71:LUFA-111009/LUFA/Drivers/USB/Core/AVR8/Template/Template_Endpoint_RW.c **** 			TEMPLATE_BUFFER_MOVE(DataStream, 1);
 584               		.loc 3 71 0
 585 007c 8881      		ld r24,Y
 586               	.LVL58:
 587               	.LBB278:
 588               	.LBB279:
 624:LUFA-111009/LUFA/Drivers/USB/Core/AVR8/../AVR8/../AVR8/Endpoint_AVR8.h **** 			}
 589               		.loc 2 624 0
 590 007e 8093 F100 		sts 241,r24
 591               	.LBE279:
 592               	.LBE278:
  72:LUFA-111009/LUFA/Drivers/USB/Core/AVR8/Template/Template_Endpoint_RW.c **** 			Length--;
 593               		.loc 3 72 0
 594 0082 2197      		sbiw r28,1
 595               	.LVL59:
  73:LUFA-111009/LUFA/Drivers/USB/Core/AVR8/Template/Template_Endpoint_RW.c **** 			BytesInTransfer++;
 596               		.loc 3 73 0
 597 0084 0150      		subi r16,1
 598 0086 1109      		sbc r17,__zero_reg__
 599               	.LVL60:
  74:LUFA-111009/LUFA/Drivers/USB/Core/AVR8/Template/Template_Endpoint_RW.c **** 		}
 600               		.loc 3 74 0
 601 0088 FFEF      		ldi r31,-1
 602 008a CF1A      		sub r12,r31
 603 008c DF0A      		sbc r13,r31
 604               	.LVL61:
 605 008e 00C0      		rjmp .L45
 606               	.LVL62:
 607               	.L55:
  78:LUFA-111009/LUFA/Drivers/USB/Core/AVR8/Template/Template_Endpoint_RW.c **** }
 608               		.loc 3 78 0
 609 0090 80E0      		ldi r24,0
 610               	.LVL63:
 611               	.L43:
 612               	/* epilogue start */
 613               		.loc 3 79 0
 614 0092 DF91      		pop r29
 615 0094 CF91      		pop r28
 616 0096 1F91      		pop r17
 617 0098 0F91      		pop r16
 618               	.LVL64:
 619 009a FF90      		pop r15
 620 009c EF90      		pop r14
 621               	.LVL65:
 622 009e DF90      		pop r13
 623 00a0 CF90      		pop r12
 624 00a2 0895      		ret
 625               		.cfi_endproc
 626               	.LFE84:
 628               		.section	.text.Endpoint_Read_Stream_LE,"ax",@progbits
 629               	.global	Endpoint_Read_Stream_LE
 631               	Endpoint_Read_Stream_LE:
 632               	.LFB85:
  36:LUFA-111009/LUFA/Drivers/USB/Core/AVR8/Template/Template_Endpoint_RW.c **** 	uint8_t* DataStream      = ((uint8_t*)Buffer + TEMPLATE_BUFFER_OFFSET(Length));
 633               		.loc 3 36 0
 634               		.cfi_startproc
 635               	.LVL66:
 636 0000 CF92      		push r12
 637               	.LCFI28:
 638               		.cfi_def_cfa_offset 3
 639               		.cfi_offset 12, -2
 640 0002 DF92      		push r13
 641               	.LCFI29:
 642               		.cfi_def_cfa_offset 4
 643               		.cfi_offset 13, -3
 644 0004 EF92      		push r14
 645               	.LCFI30:
 646               		.cfi_def_cfa_offset 5
 647               		.cfi_offset 14, -4
 648 0006 FF92      		push r15
 649               	.LCFI31:
 650               		.cfi_def_cfa_offset 6
 651               		.cfi_offset 15, -5
 652 0008 0F93      		push r16
 653               	.LCFI32:
 654               		.cfi_def_cfa_offset 7
 655               		.cfi_offset 16, -6
 656 000a 1F93      		push r17
 657               	.LCFI33:
 658               		.cfi_def_cfa_offset 8
 659               		.cfi_offset 17, -7
 660 000c CF93      		push r28
 661               	.LCFI34:
 662               		.cfi_def_cfa_offset 9
 663               		.cfi_offset 28, -8
 664 000e DF93      		push r29
 665               	.LCFI35:
 666               		.cfi_def_cfa_offset 10
 667               		.cfi_offset 29, -9
 668               	/* prologue: function */
 669               	/* frame size = 0 */
 670               	/* stack size = 8 */
 671               	.L__stack_usage = 8
 672 0010 7C01      		movw r14,r24
 673 0012 8B01      		movw r16,r22
 674 0014 EA01      		movw r28,r20
 675               	.LVL67:
  41:LUFA-111009/LUFA/Drivers/USB/Core/AVR8/Template/Template_Endpoint_RW.c **** 	  return ErrorCode;
 676               		.loc 3 41 0
 677 0016 0E94 0000 		call Endpoint_WaitUntilReady
 678               	.LVL68:
 679 001a 8111      		cpse r24,__zero_reg__
 680 001c 00C0      		rjmp .L57
  44:LUFA-111009/LUFA/Drivers/USB/Core/AVR8/Template/Template_Endpoint_RW.c **** 	{
 681               		.loc 3 44 0
 682 001e 2097      		sbiw r28,0
 683 0020 01F0      		breq .L58
  46:LUFA-111009/LUFA/Drivers/USB/Core/AVR8/Template/Template_Endpoint_RW.c **** 		TEMPLATE_BUFFER_MOVE(DataStream, *BytesProcessed);
 684               		.loc 3 46 0
 685 0022 8881      		ld r24,Y
 686 0024 9981      		ldd r25,Y+1
 687               	.LVL69:
 688 0026 081B      		sub r16,r24
 689 0028 190B      		sbc r17,r25
 690               	.LVL70:
  47:LUFA-111009/LUFA/Drivers/USB/Core/AVR8/Template/Template_Endpoint_RW.c **** 	}
 691               		.loc 3 47 0
 692 002a E80E      		add r14,r24
 693 002c F91E      		adc r15,r25
 694               	.LVL71:
 695               	.L58:
  37:LUFA-111009/LUFA/Drivers/USB/Core/AVR8/Template/Template_Endpoint_RW.c **** 	uint16_t BytesInTransfer = 0;
 696               		.loc 3 37 0 discriminator 1
 697 002e C12C      		mov r12,__zero_reg__
 698 0030 D12C      		mov r13,__zero_reg__
 699               	.LVL72:
 700               	.L59:
  50:LUFA-111009/LUFA/Drivers/USB/Core/AVR8/Template/Template_Endpoint_RW.c **** 	{
 701               		.loc 3 50 0 discriminator 1
 702 0032 0115      		cp r16,__zero_reg__
 703 0034 1105      		cpc r17,__zero_reg__
 704 0036 01F0      		breq .L67
 705               	.LBB280:
 706               	.LBB281:
 420:LUFA-111009/LUFA/Drivers/USB/Core/AVR8/../AVR8/../AVR8/Endpoint_AVR8.h **** 			}
 707               		.loc 2 420 0
 708 0038 8091 E800 		lds r24,232
 709               	.LBE281:
 710               	.LBE280:
  52:LUFA-111009/LUFA/Drivers/USB/Core/AVR8/Template/Template_Endpoint_RW.c **** 		{
 711               		.loc 3 52 0
 712 003c 85FD      		sbrc r24,5
 713 003e 00C0      		rjmp .L60
 714               	.LBB282:
 715               	.LBB283:
 531:LUFA-111009/LUFA/Drivers/USB/Core/AVR8/../AVR8/../AVR8/Endpoint_AVR8.h **** 				#else
 716               		.loc 2 531 0
 717 0040 8091 E800 		lds r24,232
 718 0044 8B77      		andi r24,lo8(123)
 719 0046 8093 E800 		sts 232,r24
 720               	.LBE283:
 721               	.LBE282:
  57:LUFA-111009/LUFA/Drivers/USB/Core/AVR8/Template/Template_Endpoint_RW.c **** 			#endif
 722               		.loc 3 57 0
 723 004a 0E94 0000 		call USB_USBTask
 724               	.LVL73:
  60:LUFA-111009/LUFA/Drivers/USB/Core/AVR8/Template/Template_Endpoint_RW.c **** 			{
 725               		.loc 3 60 0
 726 004e 2097      		sbiw r28,0
 727 0050 01F0      		breq .L61
  62:LUFA-111009/LUFA/Drivers/USB/Core/AVR8/Template/Template_Endpoint_RW.c **** 				return ENDPOINT_RWSTREAM_IncompleteTransfer;
 728               		.loc 3 62 0
 729 0052 8881      		ld r24,Y
 730 0054 9981      		ldd r25,Y+1
 731 0056 8C0D      		add r24,r12
 732 0058 9D1D      		adc r25,r13
 733 005a 9983      		std Y+1,r25
 734 005c 8883      		st Y,r24
  63:LUFA-111009/LUFA/Drivers/USB/Core/AVR8/Template/Template_Endpoint_RW.c **** 			}
 735               		.loc 3 63 0
 736 005e 85E0      		ldi r24,lo8(5)
 737 0060 00C0      		rjmp .L57
 738               	.L61:
  66:LUFA-111009/LUFA/Drivers/USB/Core/AVR8/Template/Template_Endpoint_RW.c **** 			  return ErrorCode;
 739               		.loc 3 66 0
 740 0062 0E94 0000 		call Endpoint_WaitUntilReady
 741               	.LVL74:
 742 0066 8823      		tst r24
 743 0068 01F0      		breq .L59
 744 006a 00C0      		rjmp .L57
 745               	.LVL75:
 746               	.L60:
 747               	.LBB284:
 748               	.LBB285:
 612:LUFA-111009/LUFA/Drivers/USB/Core/AVR8/../AVR8/../AVR8/Endpoint_AVR8.h **** 			}
 749               		.loc 2 612 0
 750 006c 8091 F100 		lds r24,241
 751               	.LBE285:
 752               	.LBE284:
  71:LUFA-111009/LUFA/Drivers/USB/Core/AVR8/Template/Template_Endpoint_RW.c **** 			TEMPLATE_BUFFER_MOVE(DataStream, 1);
 753               		.loc 3 71 0
 754 0070 F701      		movw r30,r14
 755 0072 8193      		st Z+,r24
 756 0074 7F01      		movw r14,r30
 757               	.LVL76:
  73:LUFA-111009/LUFA/Drivers/USB/Core/AVR8/Template/Template_Endpoint_RW.c **** 			BytesInTransfer++;
 758               		.loc 3 73 0
 759 0076 0150      		subi r16,1
 760 0078 1109      		sbc r17,__zero_reg__
 761               	.LVL77:
  74:LUFA-111009/LUFA/Drivers/USB/Core/AVR8/Template/Template_Endpoint_RW.c **** 		}
 762               		.loc 3 74 0
 763 007a FFEF      		ldi r31,-1
 764 007c CF1A      		sub r12,r31
 765 007e DF0A      		sbc r13,r31
 766               	.LVL78:
 767 0080 00C0      		rjmp .L59
 768               	.L67:
  78:LUFA-111009/LUFA/Drivers/USB/Core/AVR8/Template/Template_Endpoint_RW.c **** }
 769               		.loc 3 78 0
 770 0082 80E0      		ldi r24,0
 771               	.LVL79:
 772               	.L57:
 773               	/* epilogue start */
 774               		.loc 3 79 0
 775 0084 DF91      		pop r29
 776 0086 CF91      		pop r28
 777               	.LVL80:
 778 0088 1F91      		pop r17
 779 008a 0F91      		pop r16
 780               	.LVL81:
 781 008c FF90      		pop r15
 782 008e EF90      		pop r14
 783               	.LVL82:
 784 0090 DF90      		pop r13
 785 0092 CF90      		pop r12
 786 0094 0895      		ret
 787               		.cfi_endproc
 788               	.LFE85:
 790               		.section	.text.Endpoint_Read_Stream_BE,"ax",@progbits
 791               	.global	Endpoint_Read_Stream_BE
 793               	Endpoint_Read_Stream_BE:
 794               	.LFB86:
  36:LUFA-111009/LUFA/Drivers/USB/Core/AVR8/Template/Template_Endpoint_RW.c **** 	uint8_t* DataStream      = ((uint8_t*)Buffer + TEMPLATE_BUFFER_OFFSET(Length));
 795               		.loc 3 36 0
 796               		.cfi_startproc
 797               	.LVL83:
 798 0000 CF92      		push r12
 799               	.LCFI36:
 800               		.cfi_def_cfa_offset 3
 801               		.cfi_offset 12, -2
 802 0002 DF92      		push r13
 803               	.LCFI37:
 804               		.cfi_def_cfa_offset 4
 805               		.cfi_offset 13, -3
 806 0004 EF92      		push r14
 807               	.LCFI38:
 808               		.cfi_def_cfa_offset 5
 809               		.cfi_offset 14, -4
 810 0006 FF92      		push r15
 811               	.LCFI39:
 812               		.cfi_def_cfa_offset 6
 813               		.cfi_offset 15, -5
 814 0008 0F93      		push r16
 815               	.LCFI40:
 816               		.cfi_def_cfa_offset 7
 817               		.cfi_offset 16, -6
 818 000a 1F93      		push r17
 819               	.LCFI41:
 820               		.cfi_def_cfa_offset 8
 821               		.cfi_offset 17, -7
 822 000c CF93      		push r28
 823               	.LCFI42:
 824               		.cfi_def_cfa_offset 9
 825               		.cfi_offset 28, -8
 826 000e DF93      		push r29
 827               	.LCFI43:
 828               		.cfi_def_cfa_offset 10
 829               		.cfi_offset 29, -9
 830               	/* prologue: function */
 831               	/* frame size = 0 */
 832               	/* stack size = 8 */
 833               	.L__stack_usage = 8
 834 0010 6C01      		movw r12,r24
 835 0012 8B01      		movw r16,r22
 836 0014 7A01      		movw r14,r20
 837               	.LVL84:
  41:LUFA-111009/LUFA/Drivers/USB/Core/AVR8/Template/Template_Endpoint_RW.c **** 	  return ErrorCode;
 838               		.loc 3 41 0
 839 0016 0E94 0000 		call Endpoint_WaitUntilReady
 840               	.LVL85:
 841 001a 8111      		cpse r24,__zero_reg__
 842 001c 00C0      		rjmp .L69
  37:LUFA-111009/LUFA/Drivers/USB/Core/AVR8/Template/Template_Endpoint_RW.c **** 	uint16_t BytesInTransfer = 0;
 843               		.loc 3 37 0
 844 001e E801      		movw r28,r16
 845 0020 2197      		sbiw r28,1
 846               	.LVL86:
 847 0022 CC0D      		add r28,r12
 848 0024 DD1D      		adc r29,r13
 849               	.LVL87:
  44:LUFA-111009/LUFA/Drivers/USB/Core/AVR8/Template/Template_Endpoint_RW.c **** 	{
 850               		.loc 3 44 0
 851 0026 E114      		cp r14,__zero_reg__
 852 0028 F104      		cpc r15,__zero_reg__
 853 002a 01F0      		breq .L70
  46:LUFA-111009/LUFA/Drivers/USB/Core/AVR8/Template/Template_Endpoint_RW.c **** 		TEMPLATE_BUFFER_MOVE(DataStream, *BytesProcessed);
 854               		.loc 3 46 0
 855 002c F701      		movw r30,r14
 856 002e 8081      		ld r24,Z
 857 0030 9181      		ldd r25,Z+1
 858               	.LVL88:
 859 0032 081B      		sub r16,r24
 860 0034 190B      		sbc r17,r25
 861               	.LVL89:
  47:LUFA-111009/LUFA/Drivers/USB/Core/AVR8/Template/Template_Endpoint_RW.c **** 	}
 862               		.loc 3 47 0
 863 0036 C81B      		sub r28,r24
 864 0038 D90B      		sbc r29,r25
 865               	.LVL90:
 866               	.L70:
  36:LUFA-111009/LUFA/Drivers/USB/Core/AVR8/Template/Template_Endpoint_RW.c **** 	uint8_t* DataStream      = ((uint8_t*)Buffer + TEMPLATE_BUFFER_OFFSET(Length));
 867               		.loc 3 36 0 discriminator 1
 868 003a C12C      		mov r12,__zero_reg__
 869 003c D12C      		mov r13,__zero_reg__
 870               	.LVL91:
 871               	.L71:
  50:LUFA-111009/LUFA/Drivers/USB/Core/AVR8/Template/Template_Endpoint_RW.c **** 	{
 872               		.loc 3 50 0 discriminator 1
 873 003e 0115      		cp r16,__zero_reg__
 874 0040 1105      		cpc r17,__zero_reg__
 875 0042 01F0      		breq .L81
 876               	.LBB286:
 877               	.LBB287:
 420:LUFA-111009/LUFA/Drivers/USB/Core/AVR8/../AVR8/../AVR8/Endpoint_AVR8.h **** 			}
 878               		.loc 2 420 0
 879 0044 8091 E800 		lds r24,232
 880               	.LBE287:
 881               	.LBE286:
  52:LUFA-111009/LUFA/Drivers/USB/Core/AVR8/Template/Template_Endpoint_RW.c **** 		{
 882               		.loc 3 52 0
 883 0048 85FD      		sbrc r24,5
 884 004a 00C0      		rjmp .L72
 885               	.LBB288:
 886               	.LBB289:
 531:LUFA-111009/LUFA/Drivers/USB/Core/AVR8/../AVR8/../AVR8/Endpoint_AVR8.h **** 				#else
 887               		.loc 2 531 0
 888 004c 8091 E800 		lds r24,232
 889 0050 8B77      		andi r24,lo8(123)
 890 0052 8093 E800 		sts 232,r24
 891               	.LBE289:
 892               	.LBE288:
  57:LUFA-111009/LUFA/Drivers/USB/Core/AVR8/Template/Template_Endpoint_RW.c **** 			#endif
 893               		.loc 3 57 0
 894 0056 0E94 0000 		call USB_USBTask
 895               	.LVL92:
  60:LUFA-111009/LUFA/Drivers/USB/Core/AVR8/Template/Template_Endpoint_RW.c **** 			{
 896               		.loc 3 60 0
 897 005a E114      		cp r14,__zero_reg__
 898 005c F104      		cpc r15,__zero_reg__
 899 005e 01F0      		breq .L73
  62:LUFA-111009/LUFA/Drivers/USB/Core/AVR8/Template/Template_Endpoint_RW.c **** 				return ENDPOINT_RWSTREAM_IncompleteTransfer;
 900               		.loc 3 62 0
 901 0060 F701      		movw r30,r14
 902 0062 8081      		ld r24,Z
 903 0064 9181      		ldd r25,Z+1
 904 0066 8C0D      		add r24,r12
 905 0068 9D1D      		adc r25,r13
 906 006a 9183      		std Z+1,r25
 907 006c 8083      		st Z,r24
  63:LUFA-111009/LUFA/Drivers/USB/Core/AVR8/Template/Template_Endpoint_RW.c **** 			}
 908               		.loc 3 63 0
 909 006e 85E0      		ldi r24,lo8(5)
 910 0070 00C0      		rjmp .L69
 911               	.L73:
  66:LUFA-111009/LUFA/Drivers/USB/Core/AVR8/Template/Template_Endpoint_RW.c **** 			  return ErrorCode;
 912               		.loc 3 66 0
 913 0072 0E94 0000 		call Endpoint_WaitUntilReady
 914               	.LVL93:
 915 0076 8823      		tst r24
 916 0078 01F0      		breq .L71
 917 007a 00C0      		rjmp .L69
 918               	.LVL94:
 919               	.L72:
 920               	.LBB290:
 921               	.LBB291:
 612:LUFA-111009/LUFA/Drivers/USB/Core/AVR8/../AVR8/../AVR8/Endpoint_AVR8.h **** 			}
 922               		.loc 2 612 0
 923 007c 8091 F100 		lds r24,241
 924               	.LBE291:
 925               	.LBE290:
  71:LUFA-111009/LUFA/Drivers/USB/Core/AVR8/Template/Template_Endpoint_RW.c **** 			TEMPLATE_BUFFER_MOVE(DataStream, 1);
 926               		.loc 3 71 0
 927 0080 8883      		st Y,r24
  72:LUFA-111009/LUFA/Drivers/USB/Core/AVR8/Template/Template_Endpoint_RW.c **** 			Length--;
 928               		.loc 3 72 0
 929 0082 2197      		sbiw r28,1
 930               	.LVL95:
  73:LUFA-111009/LUFA/Drivers/USB/Core/AVR8/Template/Template_Endpoint_RW.c **** 			BytesInTransfer++;
 931               		.loc 3 73 0
 932 0084 0150      		subi r16,1
 933 0086 1109      		sbc r17,__zero_reg__
 934               	.LVL96:
  74:LUFA-111009/LUFA/Drivers/USB/Core/AVR8/Template/Template_Endpoint_RW.c **** 		}
 935               		.loc 3 74 0
 936 0088 FFEF      		ldi r31,-1
 937 008a CF1A      		sub r12,r31
 938 008c DF0A      		sbc r13,r31
 939               	.LVL97:
 940 008e 00C0      		rjmp .L71
 941               	.L81:
  78:LUFA-111009/LUFA/Drivers/USB/Core/AVR8/Template/Template_Endpoint_RW.c **** }
 942               		.loc 3 78 0
 943 0090 80E0      		ldi r24,0
 944               	.LVL98:
 945               	.L69:
 946               	/* epilogue start */
 947               		.loc 3 79 0
 948 0092 DF91      		pop r29
 949 0094 CF91      		pop r28
 950 0096 1F91      		pop r17
 951 0098 0F91      		pop r16
 952               	.LVL99:
 953 009a FF90      		pop r15
 954 009c EF90      		pop r14
 955               	.LVL100:
 956 009e DF90      		pop r13
 957 00a0 CF90      		pop r12
 958 00a2 0895      		ret
 959               		.cfi_endproc
 960               	.LFE86:
 962               		.section	.text.Endpoint_Write_PStream_LE,"ax",@progbits
 963               	.global	Endpoint_Write_PStream_LE
 965               	Endpoint_Write_PStream_LE:
 966               	.LFB87:
  36:LUFA-111009/LUFA/Drivers/USB/Core/AVR8/Template/Template_Endpoint_RW.c **** 	uint8_t* DataStream      = ((uint8_t*)Buffer + TEMPLATE_BUFFER_OFFSET(Length));
 967               		.loc 3 36 0
 968               		.cfi_startproc
 969               	.LVL101:
 970 0000 CF92      		push r12
 971               	.LCFI44:
 972               		.cfi_def_cfa_offset 3
 973               		.cfi_offset 12, -2
 974 0002 DF92      		push r13
 975               	.LCFI45:
 976               		.cfi_def_cfa_offset 4
 977               		.cfi_offset 13, -3
 978 0004 EF92      		push r14
 979               	.LCFI46:
 980               		.cfi_def_cfa_offset 5
 981               		.cfi_offset 14, -4
 982 0006 FF92      		push r15
 983               	.LCFI47:
 984               		.cfi_def_cfa_offset 6
 985               		.cfi_offset 15, -5
 986 0008 0F93      		push r16
 987               	.LCFI48:
 988               		.cfi_def_cfa_offset 7
 989               		.cfi_offset 16, -6
 990 000a 1F93      		push r17
 991               	.LCFI49:
 992               		.cfi_def_cfa_offset 8
 993               		.cfi_offset 17, -7
 994 000c CF93      		push r28
 995               	.LCFI50:
 996               		.cfi_def_cfa_offset 9
 997               		.cfi_offset 28, -8
 998 000e DF93      		push r29
 999               	.LCFI51:
 1000               		.cfi_def_cfa_offset 10
 1001               		.cfi_offset 29, -9
 1002               	/* prologue: function */
 1003               	/* frame size = 0 */
 1004               	/* stack size = 8 */
 1005               	.L__stack_usage = 8
 1006 0010 7C01      		movw r14,r24
 1007 0012 8B01      		movw r16,r22
 1008 0014 EA01      		movw r28,r20
 1009               	.LVL102:
  41:LUFA-111009/LUFA/Drivers/USB/Core/AVR8/Template/Template_Endpoint_RW.c **** 	  return ErrorCode;
 1010               		.loc 3 41 0
 1011 0016 0E94 0000 		call Endpoint_WaitUntilReady
 1012               	.LVL103:
 1013 001a 8111      		cpse r24,__zero_reg__
 1014 001c 00C0      		rjmp .L83
  44:LUFA-111009/LUFA/Drivers/USB/Core/AVR8/Template/Template_Endpoint_RW.c **** 	{
 1015               		.loc 3 44 0
 1016 001e 2097      		sbiw r28,0
 1017 0020 01F0      		breq .L84
  46:LUFA-111009/LUFA/Drivers/USB/Core/AVR8/Template/Template_Endpoint_RW.c **** 		TEMPLATE_BUFFER_MOVE(DataStream, *BytesProcessed);
 1018               		.loc 3 46 0
 1019 0022 8881      		ld r24,Y
 1020 0024 9981      		ldd r25,Y+1
 1021               	.LVL104:
 1022 0026 081B      		sub r16,r24
 1023 0028 190B      		sbc r17,r25
 1024               	.LVL105:
  47:LUFA-111009/LUFA/Drivers/USB/Core/AVR8/Template/Template_Endpoint_RW.c **** 	}
 1025               		.loc 3 47 0
 1026 002a E80E      		add r14,r24
 1027 002c F91E      		adc r15,r25
 1028               	.LVL106:
 1029               	.L84:
  37:LUFA-111009/LUFA/Drivers/USB/Core/AVR8/Template/Template_Endpoint_RW.c **** 	uint16_t BytesInTransfer = 0;
 1030               		.loc 3 37 0 discriminator 1
 1031 002e C12C      		mov r12,__zero_reg__
 1032 0030 D12C      		mov r13,__zero_reg__
 1033               	.LVL107:
 1034               	.L85:
  50:LUFA-111009/LUFA/Drivers/USB/Core/AVR8/Template/Template_Endpoint_RW.c **** 	{
 1035               		.loc 3 50 0 discriminator 1
 1036 0032 0115      		cp r16,__zero_reg__
 1037 0034 1105      		cpc r17,__zero_reg__
 1038 0036 01F0      		breq .L93
 1039               	.LBB292:
 1040               	.LBB293:
 420:LUFA-111009/LUFA/Drivers/USB/Core/AVR8/../AVR8/../AVR8/Endpoint_AVR8.h **** 			}
 1041               		.loc 2 420 0
 1042 0038 8091 E800 		lds r24,232
 1043               	.LBE293:
 1044               	.LBE292:
  52:LUFA-111009/LUFA/Drivers/USB/Core/AVR8/Template/Template_Endpoint_RW.c **** 		{
 1045               		.loc 3 52 0
 1046 003c 85FD      		sbrc r24,5
 1047 003e 00C0      		rjmp .L86
 1048               	.LBB294:
 1049               	.LBB295:
 516:LUFA-111009/LUFA/Drivers/USB/Core/AVR8/../AVR8/../AVR8/Endpoint_AVR8.h **** 				#else
 1050               		.loc 2 516 0
 1051 0040 8091 E800 		lds r24,232
 1052 0044 8E77      		andi r24,lo8(126)
 1053 0046 8093 E800 		sts 232,r24
 1054               	.LBE295:
 1055               	.LBE294:
  57:LUFA-111009/LUFA/Drivers/USB/Core/AVR8/Template/Template_Endpoint_RW.c **** 			#endif
 1056               		.loc 3 57 0
 1057 004a 0E94 0000 		call USB_USBTask
 1058               	.LVL108:
  60:LUFA-111009/LUFA/Drivers/USB/Core/AVR8/Template/Template_Endpoint_RW.c **** 			{
 1059               		.loc 3 60 0
 1060 004e 2097      		sbiw r28,0
 1061 0050 01F0      		breq .L87
  62:LUFA-111009/LUFA/Drivers/USB/Core/AVR8/Template/Template_Endpoint_RW.c **** 				return ENDPOINT_RWSTREAM_IncompleteTransfer;
 1062               		.loc 3 62 0
 1063 0052 8881      		ld r24,Y
 1064 0054 9981      		ldd r25,Y+1
 1065 0056 8C0D      		add r24,r12
 1066 0058 9D1D      		adc r25,r13
 1067 005a 9983      		std Y+1,r25
 1068 005c 8883      		st Y,r24
  63:LUFA-111009/LUFA/Drivers/USB/Core/AVR8/Template/Template_Endpoint_RW.c **** 			}
 1069               		.loc 3 63 0
 1070 005e 85E0      		ldi r24,lo8(5)
 1071 0060 00C0      		rjmp .L83
 1072               	.L87:
  66:LUFA-111009/LUFA/Drivers/USB/Core/AVR8/Template/Template_Endpoint_RW.c **** 			  return ErrorCode;
 1073               		.loc 3 66 0
 1074 0062 0E94 0000 		call Endpoint_WaitUntilReady
 1075               	.LVL109:
 1076 0066 8823      		tst r24
 1077 0068 01F0      		breq .L85
 1078 006a 00C0      		rjmp .L83
 1079               	.LVL110:
 1080               	.L86:
 1081               	.LBB296:
  71:LUFA-111009/LUFA/Drivers/USB/Core/AVR8/Template/Template_Endpoint_RW.c **** 			TEMPLATE_BUFFER_MOVE(DataStream, 1);
 1082               		.loc 3 71 0
 1083 006c F701      		movw r30,r14
 1084               	/* #APP */
 1085               	 ;  71 "LUFA-111009/LUFA/Drivers/USB/Core/AVR8/Template/Template_Endpoint_RW.c" 1
 1086 006e 8491      		lpm r24, Z
 1087               		
 1088               	 ;  0 "" 2
 1089               	.LVL111:
 1090               	/* #NOAPP */
 1091               	.LBE296:
 1092               	.LBB297:
 1093               	.LBB298:
 624:LUFA-111009/LUFA/Drivers/USB/Core/AVR8/../AVR8/../AVR8/Endpoint_AVR8.h **** 			}
 1094               		.loc 2 624 0
 1095 0070 8093 F100 		sts 241,r24
 1096               	.LBE298:
 1097               	.LBE297:
  72:LUFA-111009/LUFA/Drivers/USB/Core/AVR8/Template/Template_Endpoint_RW.c **** 			Length--;
 1098               		.loc 3 72 0
 1099 0074 FFEF      		ldi r31,-1
 1100 0076 EF1A      		sub r14,r31
 1101 0078 FF0A      		sbc r15,r31
 1102               	.LVL112:
  73:LUFA-111009/LUFA/Drivers/USB/Core/AVR8/Template/Template_Endpoint_RW.c **** 			BytesInTransfer++;
 1103               		.loc 3 73 0
 1104 007a 0150      		subi r16,1
 1105 007c 1109      		sbc r17,__zero_reg__
 1106               	.LVL113:
  74:LUFA-111009/LUFA/Drivers/USB/Core/AVR8/Template/Template_Endpoint_RW.c **** 		}
 1107               		.loc 3 74 0
 1108 007e 8FEF      		ldi r24,-1
 1109 0080 C81A      		sub r12,r24
 1110 0082 D80A      		sbc r13,r24
 1111               	.LVL114:
 1112 0084 00C0      		rjmp .L85
 1113               	.LVL115:
 1114               	.L93:
  78:LUFA-111009/LUFA/Drivers/USB/Core/AVR8/Template/Template_Endpoint_RW.c **** }
 1115               		.loc 3 78 0
 1116 0086 80E0      		ldi r24,0
 1117               	.LVL116:
 1118               	.L83:
 1119               	/* epilogue start */
 1120               		.loc 3 79 0
 1121 0088 DF91      		pop r29
 1122 008a CF91      		pop r28
 1123               	.LVL117:
 1124 008c 1F91      		pop r17
 1125 008e 0F91      		pop r16
 1126               	.LVL118:
 1127 0090 FF90      		pop r15
 1128 0092 EF90      		pop r14
 1129               	.LVL119:
 1130 0094 DF90      		pop r13
 1131 0096 CF90      		pop r12
 1132 0098 0895      		ret
 1133               		.cfi_endproc
 1134               	.LFE87:
 1136               		.section	.text.Endpoint_Write_PStream_BE,"ax",@progbits
 1137               	.global	Endpoint_Write_PStream_BE
 1139               	Endpoint_Write_PStream_BE:
 1140               	.LFB88:
  36:LUFA-111009/LUFA/Drivers/USB/Core/AVR8/Template/Template_Endpoint_RW.c **** 	uint8_t* DataStream      = ((uint8_t*)Buffer + TEMPLATE_BUFFER_OFFSET(Length));
 1141               		.loc 3 36 0
 1142               		.cfi_startproc
 1143               	.LVL120:
 1144 0000 CF92      		push r12
 1145               	.LCFI52:
 1146               		.cfi_def_cfa_offset 3
 1147               		.cfi_offset 12, -2
 1148 0002 DF92      		push r13
 1149               	.LCFI53:
 1150               		.cfi_def_cfa_offset 4
 1151               		.cfi_offset 13, -3
 1152 0004 EF92      		push r14
 1153               	.LCFI54:
 1154               		.cfi_def_cfa_offset 5
 1155               		.cfi_offset 14, -4
 1156 0006 FF92      		push r15
 1157               	.LCFI55:
 1158               		.cfi_def_cfa_offset 6
 1159               		.cfi_offset 15, -5
 1160 0008 0F93      		push r16
 1161               	.LCFI56:
 1162               		.cfi_def_cfa_offset 7
 1163               		.cfi_offset 16, -6
 1164 000a 1F93      		push r17
 1165               	.LCFI57:
 1166               		.cfi_def_cfa_offset 8
 1167               		.cfi_offset 17, -7
 1168 000c CF93      		push r28
 1169               	.LCFI58:
 1170               		.cfi_def_cfa_offset 9
 1171               		.cfi_offset 28, -8
 1172 000e DF93      		push r29
 1173               	.LCFI59:
 1174               		.cfi_def_cfa_offset 10
 1175               		.cfi_offset 29, -9
 1176               	/* prologue: function */
 1177               	/* frame size = 0 */
 1178               	/* stack size = 8 */
 1179               	.L__stack_usage = 8
 1180 0010 6C01      		movw r12,r24
 1181 0012 8B01      		movw r16,r22
 1182 0014 7A01      		movw r14,r20
 1183               	.LVL121:
  41:LUFA-111009/LUFA/Drivers/USB/Core/AVR8/Template/Template_Endpoint_RW.c **** 	  return ErrorCode;
 1184               		.loc 3 41 0
 1185 0016 0E94 0000 		call Endpoint_WaitUntilReady
 1186               	.LVL122:
 1187 001a 8111      		cpse r24,__zero_reg__
 1188 001c 00C0      		rjmp .L95
  37:LUFA-111009/LUFA/Drivers/USB/Core/AVR8/Template/Template_Endpoint_RW.c **** 	uint16_t BytesInTransfer = 0;
 1189               		.loc 3 37 0
 1190 001e E801      		movw r28,r16
 1191 0020 2197      		sbiw r28,1
 1192               	.LVL123:
 1193 0022 CC0D      		add r28,r12
 1194 0024 DD1D      		adc r29,r13
 1195               	.LVL124:
  44:LUFA-111009/LUFA/Drivers/USB/Core/AVR8/Template/Template_Endpoint_RW.c **** 	{
 1196               		.loc 3 44 0
 1197 0026 E114      		cp r14,__zero_reg__
 1198 0028 F104      		cpc r15,__zero_reg__
 1199 002a 01F0      		breq .L96
  46:LUFA-111009/LUFA/Drivers/USB/Core/AVR8/Template/Template_Endpoint_RW.c **** 		TEMPLATE_BUFFER_MOVE(DataStream, *BytesProcessed);
 1200               		.loc 3 46 0
 1201 002c F701      		movw r30,r14
 1202 002e 8081      		ld r24,Z
 1203 0030 9181      		ldd r25,Z+1
 1204               	.LVL125:
 1205 0032 081B      		sub r16,r24
 1206 0034 190B      		sbc r17,r25
 1207               	.LVL126:
  47:LUFA-111009/LUFA/Drivers/USB/Core/AVR8/Template/Template_Endpoint_RW.c **** 	}
 1208               		.loc 3 47 0
 1209 0036 C81B      		sub r28,r24
 1210 0038 D90B      		sbc r29,r25
 1211               	.LVL127:
 1212               	.L96:
  36:LUFA-111009/LUFA/Drivers/USB/Core/AVR8/Template/Template_Endpoint_RW.c **** 	uint8_t* DataStream      = ((uint8_t*)Buffer + TEMPLATE_BUFFER_OFFSET(Length));
 1213               		.loc 3 36 0 discriminator 1
 1214 003a C12C      		mov r12,__zero_reg__
 1215 003c D12C      		mov r13,__zero_reg__
 1216               	.LVL128:
 1217               	.L97:
  50:LUFA-111009/LUFA/Drivers/USB/Core/AVR8/Template/Template_Endpoint_RW.c **** 	{
 1218               		.loc 3 50 0 discriminator 1
 1219 003e 0115      		cp r16,__zero_reg__
 1220 0040 1105      		cpc r17,__zero_reg__
 1221 0042 01F0      		breq .L107
 1222               	.LBB299:
 1223               	.LBB300:
 420:LUFA-111009/LUFA/Drivers/USB/Core/AVR8/../AVR8/../AVR8/Endpoint_AVR8.h **** 			}
 1224               		.loc 2 420 0
 1225 0044 8091 E800 		lds r24,232
 1226               	.LBE300:
 1227               	.LBE299:
  52:LUFA-111009/LUFA/Drivers/USB/Core/AVR8/Template/Template_Endpoint_RW.c **** 		{
 1228               		.loc 3 52 0
 1229 0048 85FD      		sbrc r24,5
 1230 004a 00C0      		rjmp .L98
 1231               	.LBB301:
 1232               	.LBB302:
 516:LUFA-111009/LUFA/Drivers/USB/Core/AVR8/../AVR8/../AVR8/Endpoint_AVR8.h **** 				#else
 1233               		.loc 2 516 0
 1234 004c 8091 E800 		lds r24,232
 1235 0050 8E77      		andi r24,lo8(126)
 1236 0052 8093 E800 		sts 232,r24
 1237               	.LBE302:
 1238               	.LBE301:
  57:LUFA-111009/LUFA/Drivers/USB/Core/AVR8/Template/Template_Endpoint_RW.c **** 			#endif
 1239               		.loc 3 57 0
 1240 0056 0E94 0000 		call USB_USBTask
 1241               	.LVL129:
  60:LUFA-111009/LUFA/Drivers/USB/Core/AVR8/Template/Template_Endpoint_RW.c **** 			{
 1242               		.loc 3 60 0
 1243 005a E114      		cp r14,__zero_reg__
 1244 005c F104      		cpc r15,__zero_reg__
 1245 005e 01F0      		breq .L99
  62:LUFA-111009/LUFA/Drivers/USB/Core/AVR8/Template/Template_Endpoint_RW.c **** 				return ENDPOINT_RWSTREAM_IncompleteTransfer;
 1246               		.loc 3 62 0
 1247 0060 F701      		movw r30,r14
 1248 0062 8081      		ld r24,Z
 1249 0064 9181      		ldd r25,Z+1
 1250 0066 8C0D      		add r24,r12
 1251 0068 9D1D      		adc r25,r13
 1252 006a 9183      		std Z+1,r25
 1253 006c 8083      		st Z,r24
  63:LUFA-111009/LUFA/Drivers/USB/Core/AVR8/Template/Template_Endpoint_RW.c **** 			}
 1254               		.loc 3 63 0
 1255 006e 85E0      		ldi r24,lo8(5)
 1256 0070 00C0      		rjmp .L95
 1257               	.L99:
  66:LUFA-111009/LUFA/Drivers/USB/Core/AVR8/Template/Template_Endpoint_RW.c **** 			  return ErrorCode;
 1258               		.loc 3 66 0
 1259 0072 0E94 0000 		call Endpoint_WaitUntilReady
 1260               	.LVL130:
 1261 0076 8823      		tst r24
 1262 0078 01F0      		breq .L97
 1263 007a 00C0      		rjmp .L95
 1264               	.LVL131:
 1265               	.L98:
 1266               	.LBB303:
  71:LUFA-111009/LUFA/Drivers/USB/Core/AVR8/Template/Template_Endpoint_RW.c **** 			TEMPLATE_BUFFER_MOVE(DataStream, 1);
 1267               		.loc 3 71 0
 1268 007c FE01      		movw r30,r28
 1269               	/* #APP */
 1270               	 ;  71 "LUFA-111009/LUFA/Drivers/USB/Core/AVR8/Template/Template_Endpoint_RW.c" 1
 1271 007e 8491      		lpm r24, Z
 1272               		
 1273               	 ;  0 "" 2
 1274               	.LVL132:
 1275               	/* #NOAPP */
 1276               	.LBE303:
 1277               	.LBB304:
 1278               	.LBB305:
 624:LUFA-111009/LUFA/Drivers/USB/Core/AVR8/../AVR8/../AVR8/Endpoint_AVR8.h **** 			}
 1279               		.loc 2 624 0
 1280 0080 8093 F100 		sts 241,r24
 1281               	.LBE305:
 1282               	.LBE304:
  72:LUFA-111009/LUFA/Drivers/USB/Core/AVR8/Template/Template_Endpoint_RW.c **** 			Length--;
 1283               		.loc 3 72 0
 1284 0084 2197      		sbiw r28,1
 1285               	.LVL133:
  73:LUFA-111009/LUFA/Drivers/USB/Core/AVR8/Template/Template_Endpoint_RW.c **** 			BytesInTransfer++;
 1286               		.loc 3 73 0
 1287 0086 0150      		subi r16,1
 1288 0088 1109      		sbc r17,__zero_reg__
 1289               	.LVL134:
  74:LUFA-111009/LUFA/Drivers/USB/Core/AVR8/Template/Template_Endpoint_RW.c **** 		}
 1290               		.loc 3 74 0
 1291 008a FFEF      		ldi r31,-1
 1292 008c CF1A      		sub r12,r31
 1293 008e DF0A      		sbc r13,r31
 1294               	.LVL135:
 1295 0090 00C0      		rjmp .L97
 1296               	.LVL136:
 1297               	.L107:
  78:LUFA-111009/LUFA/Drivers/USB/Core/AVR8/Template/Template_Endpoint_RW.c **** }
 1298               		.loc 3 78 0
 1299 0092 80E0      		ldi r24,0
 1300               	.LVL137:
 1301               	.L95:
 1302               	/* epilogue start */
 1303               		.loc 3 79 0
 1304 0094 DF91      		pop r29
 1305 0096 CF91      		pop r28
 1306 0098 1F91      		pop r17
 1307 009a 0F91      		pop r16
 1308               	.LVL138:
 1309 009c FF90      		pop r15
 1310 009e EF90      		pop r14
 1311               	.LVL139:
 1312 00a0 DF90      		pop r13
 1313 00a2 CF90      		pop r12
 1314 00a4 0895      		ret
 1315               		.cfi_endproc
 1316               	.LFE88:
 1318               		.section	.text.Endpoint_Write_EStream_LE,"ax",@progbits
 1319               	.global	Endpoint_Write_EStream_LE
 1321               	Endpoint_Write_EStream_LE:
 1322               	.LFB89:
  36:LUFA-111009/LUFA/Drivers/USB/Core/AVR8/Template/Template_Endpoint_RW.c **** 	uint8_t* DataStream      = ((uint8_t*)Buffer + TEMPLATE_BUFFER_OFFSET(Length));
 1323               		.loc 3 36 0
 1324               		.cfi_startproc
 1325               	.LVL140:
 1326 0000 CF92      		push r12
 1327               	.LCFI60:
 1328               		.cfi_def_cfa_offset 3
 1329               		.cfi_offset 12, -2
 1330 0002 DF92      		push r13
 1331               	.LCFI61:
 1332               		.cfi_def_cfa_offset 4
 1333               		.cfi_offset 13, -3
 1334 0004 EF92      		push r14
 1335               	.LCFI62:
 1336               		.cfi_def_cfa_offset 5
 1337               		.cfi_offset 14, -4
 1338 0006 FF92      		push r15
 1339               	.LCFI63:
 1340               		.cfi_def_cfa_offset 6
 1341               		.cfi_offset 15, -5
 1342 0008 0F93      		push r16
 1343               	.LCFI64:
 1344               		.cfi_def_cfa_offset 7
 1345               		.cfi_offset 16, -6
 1346 000a 1F93      		push r17
 1347               	.LCFI65:
 1348               		.cfi_def_cfa_offset 8
 1349               		.cfi_offset 17, -7
 1350 000c CF93      		push r28
 1351               	.LCFI66:
 1352               		.cfi_def_cfa_offset 9
 1353               		.cfi_offset 28, -8
 1354 000e DF93      		push r29
 1355               	.LCFI67:
 1356               		.cfi_def_cfa_offset 10
 1357               		.cfi_offset 29, -9
 1358               	/* prologue: function */
 1359               	/* frame size = 0 */
 1360               	/* stack size = 8 */
 1361               	.L__stack_usage = 8
 1362 0010 7C01      		movw r14,r24
 1363 0012 8B01      		movw r16,r22
 1364 0014 EA01      		movw r28,r20
 1365               	.LVL141:
  41:LUFA-111009/LUFA/Drivers/USB/Core/AVR8/Template/Template_Endpoint_RW.c **** 	  return ErrorCode;
 1366               		.loc 3 41 0
 1367 0016 0E94 0000 		call Endpoint_WaitUntilReady
 1368               	.LVL142:
 1369 001a 8111      		cpse r24,__zero_reg__
 1370 001c 00C0      		rjmp .L109
  44:LUFA-111009/LUFA/Drivers/USB/Core/AVR8/Template/Template_Endpoint_RW.c **** 	{
 1371               		.loc 3 44 0
 1372 001e 2097      		sbiw r28,0
 1373 0020 01F0      		breq .L110
  46:LUFA-111009/LUFA/Drivers/USB/Core/AVR8/Template/Template_Endpoint_RW.c **** 		TEMPLATE_BUFFER_MOVE(DataStream, *BytesProcessed);
 1374               		.loc 3 46 0
 1375 0022 8881      		ld r24,Y
 1376 0024 9981      		ldd r25,Y+1
 1377               	.LVL143:
 1378 0026 081B      		sub r16,r24
 1379 0028 190B      		sbc r17,r25
 1380               	.LVL144:
  47:LUFA-111009/LUFA/Drivers/USB/Core/AVR8/Template/Template_Endpoint_RW.c **** 	}
 1381               		.loc 3 47 0
 1382 002a E80E      		add r14,r24
 1383 002c F91E      		adc r15,r25
 1384               	.LVL145:
 1385               	.L110:
  37:LUFA-111009/LUFA/Drivers/USB/Core/AVR8/Template/Template_Endpoint_RW.c **** 	uint16_t BytesInTransfer = 0;
 1386               		.loc 3 37 0 discriminator 1
 1387 002e C12C      		mov r12,__zero_reg__
 1388 0030 D12C      		mov r13,__zero_reg__
 1389               	.LVL146:
 1390               	.L111:
  50:LUFA-111009/LUFA/Drivers/USB/Core/AVR8/Template/Template_Endpoint_RW.c **** 	{
 1391               		.loc 3 50 0 discriminator 1
 1392 0032 0115      		cp r16,__zero_reg__
 1393 0034 1105      		cpc r17,__zero_reg__
 1394 0036 01F0      		breq .L119
 1395               	.LBB306:
 1396               	.LBB307:
 420:LUFA-111009/LUFA/Drivers/USB/Core/AVR8/../AVR8/../AVR8/Endpoint_AVR8.h **** 			}
 1397               		.loc 2 420 0
 1398 0038 8091 E800 		lds r24,232
 1399               	.LBE307:
 1400               	.LBE306:
  52:LUFA-111009/LUFA/Drivers/USB/Core/AVR8/Template/Template_Endpoint_RW.c **** 		{
 1401               		.loc 3 52 0
 1402 003c 85FD      		sbrc r24,5
 1403 003e 00C0      		rjmp .L112
 1404               	.LBB308:
 1405               	.LBB309:
 516:LUFA-111009/LUFA/Drivers/USB/Core/AVR8/../AVR8/../AVR8/Endpoint_AVR8.h **** 				#else
 1406               		.loc 2 516 0
 1407 0040 8091 E800 		lds r24,232
 1408 0044 8E77      		andi r24,lo8(126)
 1409 0046 8093 E800 		sts 232,r24
 1410               	.LBE309:
 1411               	.LBE308:
  57:LUFA-111009/LUFA/Drivers/USB/Core/AVR8/Template/Template_Endpoint_RW.c **** 			#endif
 1412               		.loc 3 57 0
 1413 004a 0E94 0000 		call USB_USBTask
 1414               	.LVL147:
  60:LUFA-111009/LUFA/Drivers/USB/Core/AVR8/Template/Template_Endpoint_RW.c **** 			{
 1415               		.loc 3 60 0
 1416 004e 2097      		sbiw r28,0
 1417 0050 01F0      		breq .L113
  62:LUFA-111009/LUFA/Drivers/USB/Core/AVR8/Template/Template_Endpoint_RW.c **** 				return ENDPOINT_RWSTREAM_IncompleteTransfer;
 1418               		.loc 3 62 0
 1419 0052 8881      		ld r24,Y
 1420 0054 9981      		ldd r25,Y+1
 1421 0056 8C0D      		add r24,r12
 1422 0058 9D1D      		adc r25,r13
 1423 005a 9983      		std Y+1,r25
 1424 005c 8883      		st Y,r24
  63:LUFA-111009/LUFA/Drivers/USB/Core/AVR8/Template/Template_Endpoint_RW.c **** 			}
 1425               		.loc 3 63 0
 1426 005e 85E0      		ldi r24,lo8(5)
 1427 0060 00C0      		rjmp .L109
 1428               	.L113:
  66:LUFA-111009/LUFA/Drivers/USB/Core/AVR8/Template/Template_Endpoint_RW.c **** 			  return ErrorCode;
 1429               		.loc 3 66 0
 1430 0062 0E94 0000 		call Endpoint_WaitUntilReady
 1431               	.LVL148:
 1432 0066 8823      		tst r24
 1433 0068 01F0      		breq .L111
 1434 006a 00C0      		rjmp .L109
 1435               	.LVL149:
 1436               	.L112:
  71:LUFA-111009/LUFA/Drivers/USB/Core/AVR8/Template/Template_Endpoint_RW.c **** 			TEMPLATE_BUFFER_MOVE(DataStream, 1);
 1437               		.loc 3 71 0
 1438 006c C701      		movw r24,r14
 1439 006e 0E94 0000 		call __eerd_byte_m32u4
 1440               	.LVL150:
 1441               	.LBB310:
 1442               	.LBB311:
 624:LUFA-111009/LUFA/Drivers/USB/Core/AVR8/../AVR8/../AVR8/Endpoint_AVR8.h **** 			}
 1443               		.loc 2 624 0
 1444 0072 8093 F100 		sts 241,r24
 1445               	.LBE311:
 1446               	.LBE310:
  72:LUFA-111009/LUFA/Drivers/USB/Core/AVR8/Template/Template_Endpoint_RW.c **** 			Length--;
 1447               		.loc 3 72 0
 1448 0076 8FEF      		ldi r24,-1
 1449 0078 E81A      		sub r14,r24
 1450 007a F80A      		sbc r15,r24
 1451               	.LVL151:
  73:LUFA-111009/LUFA/Drivers/USB/Core/AVR8/Template/Template_Endpoint_RW.c **** 			BytesInTransfer++;
 1452               		.loc 3 73 0
 1453 007c 0150      		subi r16,1
 1454 007e 1109      		sbc r17,__zero_reg__
 1455               	.LVL152:
  74:LUFA-111009/LUFA/Drivers/USB/Core/AVR8/Template/Template_Endpoint_RW.c **** 		}
 1456               		.loc 3 74 0
 1457 0080 8FEF      		ldi r24,-1
 1458 0082 C81A      		sub r12,r24
 1459 0084 D80A      		sbc r13,r24
 1460               	.LVL153:
 1461 0086 00C0      		rjmp .L111
 1462               	.LVL154:
 1463               	.L119:
  78:LUFA-111009/LUFA/Drivers/USB/Core/AVR8/Template/Template_Endpoint_RW.c **** }
 1464               		.loc 3 78 0
 1465 0088 80E0      		ldi r24,0
 1466               	.LVL155:
 1467               	.L109:
 1468               	/* epilogue start */
 1469               		.loc 3 79 0
 1470 008a DF91      		pop r29
 1471 008c CF91      		pop r28
 1472               	.LVL156:
 1473 008e 1F91      		pop r17
 1474 0090 0F91      		pop r16
 1475               	.LVL157:
 1476 0092 FF90      		pop r15
 1477 0094 EF90      		pop r14
 1478               	.LVL158:
 1479 0096 DF90      		pop r13
 1480 0098 CF90      		pop r12
 1481 009a 0895      		ret
 1482               		.cfi_endproc
 1483               	.LFE89:
 1485               		.section	.text.Endpoint_Write_EStream_BE,"ax",@progbits
 1486               	.global	Endpoint_Write_EStream_BE
 1488               	Endpoint_Write_EStream_BE:
 1489               	.LFB90:
  36:LUFA-111009/LUFA/Drivers/USB/Core/AVR8/Template/Template_Endpoint_RW.c **** 	uint8_t* DataStream      = ((uint8_t*)Buffer + TEMPLATE_BUFFER_OFFSET(Length));
 1490               		.loc 3 36 0
 1491               		.cfi_startproc
 1492               	.LVL159:
 1493 0000 CF92      		push r12
 1494               	.LCFI68:
 1495               		.cfi_def_cfa_offset 3
 1496               		.cfi_offset 12, -2
 1497 0002 DF92      		push r13
 1498               	.LCFI69:
 1499               		.cfi_def_cfa_offset 4
 1500               		.cfi_offset 13, -3
 1501 0004 EF92      		push r14
 1502               	.LCFI70:
 1503               		.cfi_def_cfa_offset 5
 1504               		.cfi_offset 14, -4
 1505 0006 FF92      		push r15
 1506               	.LCFI71:
 1507               		.cfi_def_cfa_offset 6
 1508               		.cfi_offset 15, -5
 1509 0008 0F93      		push r16
 1510               	.LCFI72:
 1511               		.cfi_def_cfa_offset 7
 1512               		.cfi_offset 16, -6
 1513 000a 1F93      		push r17
 1514               	.LCFI73:
 1515               		.cfi_def_cfa_offset 8
 1516               		.cfi_offset 17, -7
 1517 000c CF93      		push r28
 1518               	.LCFI74:
 1519               		.cfi_def_cfa_offset 9
 1520               		.cfi_offset 28, -8
 1521 000e DF93      		push r29
 1522               	.LCFI75:
 1523               		.cfi_def_cfa_offset 10
 1524               		.cfi_offset 29, -9
 1525               	/* prologue: function */
 1526               	/* frame size = 0 */
 1527               	/* stack size = 8 */
 1528               	.L__stack_usage = 8
 1529 0010 6C01      		movw r12,r24
 1530 0012 8B01      		movw r16,r22
 1531 0014 7A01      		movw r14,r20
 1532               	.LVL160:
  41:LUFA-111009/LUFA/Drivers/USB/Core/AVR8/Template/Template_Endpoint_RW.c **** 	  return ErrorCode;
 1533               		.loc 3 41 0
 1534 0016 0E94 0000 		call Endpoint_WaitUntilReady
 1535               	.LVL161:
 1536 001a 8111      		cpse r24,__zero_reg__
 1537 001c 00C0      		rjmp .L121
  37:LUFA-111009/LUFA/Drivers/USB/Core/AVR8/Template/Template_Endpoint_RW.c **** 	uint16_t BytesInTransfer = 0;
 1538               		.loc 3 37 0
 1539 001e E801      		movw r28,r16
 1540 0020 2197      		sbiw r28,1
 1541               	.LVL162:
 1542 0022 CC0D      		add r28,r12
 1543 0024 DD1D      		adc r29,r13
 1544               	.LVL163:
  44:LUFA-111009/LUFA/Drivers/USB/Core/AVR8/Template/Template_Endpoint_RW.c **** 	{
 1545               		.loc 3 44 0
 1546 0026 E114      		cp r14,__zero_reg__
 1547 0028 F104      		cpc r15,__zero_reg__
 1548 002a 01F0      		breq .L122
  46:LUFA-111009/LUFA/Drivers/USB/Core/AVR8/Template/Template_Endpoint_RW.c **** 		TEMPLATE_BUFFER_MOVE(DataStream, *BytesProcessed);
 1549               		.loc 3 46 0
 1550 002c F701      		movw r30,r14
 1551 002e 8081      		ld r24,Z
 1552 0030 9181      		ldd r25,Z+1
 1553               	.LVL164:
 1554 0032 081B      		sub r16,r24
 1555 0034 190B      		sbc r17,r25
 1556               	.LVL165:
  47:LUFA-111009/LUFA/Drivers/USB/Core/AVR8/Template/Template_Endpoint_RW.c **** 	}
 1557               		.loc 3 47 0
 1558 0036 C81B      		sub r28,r24
 1559 0038 D90B      		sbc r29,r25
 1560               	.LVL166:
 1561               	.L122:
  36:LUFA-111009/LUFA/Drivers/USB/Core/AVR8/Template/Template_Endpoint_RW.c **** 	uint8_t* DataStream      = ((uint8_t*)Buffer + TEMPLATE_BUFFER_OFFSET(Length));
 1562               		.loc 3 36 0 discriminator 1
 1563 003a C12C      		mov r12,__zero_reg__
 1564 003c D12C      		mov r13,__zero_reg__
 1565               	.LVL167:
 1566               	.L123:
  50:LUFA-111009/LUFA/Drivers/USB/Core/AVR8/Template/Template_Endpoint_RW.c **** 	{
 1567               		.loc 3 50 0 discriminator 1
 1568 003e 0115      		cp r16,__zero_reg__
 1569 0040 1105      		cpc r17,__zero_reg__
 1570 0042 01F0      		breq .L133
 1571               	.LBB312:
 1572               	.LBB313:
 420:LUFA-111009/LUFA/Drivers/USB/Core/AVR8/../AVR8/../AVR8/Endpoint_AVR8.h **** 			}
 1573               		.loc 2 420 0
 1574 0044 8091 E800 		lds r24,232
 1575               	.LBE313:
 1576               	.LBE312:
  52:LUFA-111009/LUFA/Drivers/USB/Core/AVR8/Template/Template_Endpoint_RW.c **** 		{
 1577               		.loc 3 52 0
 1578 0048 85FD      		sbrc r24,5
 1579 004a 00C0      		rjmp .L124
 1580               	.LBB314:
 1581               	.LBB315:
 516:LUFA-111009/LUFA/Drivers/USB/Core/AVR8/../AVR8/../AVR8/Endpoint_AVR8.h **** 				#else
 1582               		.loc 2 516 0
 1583 004c 8091 E800 		lds r24,232
 1584 0050 8E77      		andi r24,lo8(126)
 1585 0052 8093 E800 		sts 232,r24
 1586               	.LBE315:
 1587               	.LBE314:
  57:LUFA-111009/LUFA/Drivers/USB/Core/AVR8/Template/Template_Endpoint_RW.c **** 			#endif
 1588               		.loc 3 57 0
 1589 0056 0E94 0000 		call USB_USBTask
 1590               	.LVL168:
  60:LUFA-111009/LUFA/Drivers/USB/Core/AVR8/Template/Template_Endpoint_RW.c **** 			{
 1591               		.loc 3 60 0
 1592 005a E114      		cp r14,__zero_reg__
 1593 005c F104      		cpc r15,__zero_reg__
 1594 005e 01F0      		breq .L125
  62:LUFA-111009/LUFA/Drivers/USB/Core/AVR8/Template/Template_Endpoint_RW.c **** 				return ENDPOINT_RWSTREAM_IncompleteTransfer;
 1595               		.loc 3 62 0
 1596 0060 F701      		movw r30,r14
 1597 0062 8081      		ld r24,Z
 1598 0064 9181      		ldd r25,Z+1
 1599 0066 8C0D      		add r24,r12
 1600 0068 9D1D      		adc r25,r13
 1601 006a 9183      		std Z+1,r25
 1602 006c 8083      		st Z,r24
  63:LUFA-111009/LUFA/Drivers/USB/Core/AVR8/Template/Template_Endpoint_RW.c **** 			}
 1603               		.loc 3 63 0
 1604 006e 85E0      		ldi r24,lo8(5)
 1605 0070 00C0      		rjmp .L121
 1606               	.L125:
  66:LUFA-111009/LUFA/Drivers/USB/Core/AVR8/Template/Template_Endpoint_RW.c **** 			  return ErrorCode;
 1607               		.loc 3 66 0
 1608 0072 0E94 0000 		call Endpoint_WaitUntilReady
 1609               	.LVL169:
 1610 0076 8823      		tst r24
 1611 0078 01F0      		breq .L123
 1612 007a 00C0      		rjmp .L121
 1613               	.LVL170:
 1614               	.L124:
  71:LUFA-111009/LUFA/Drivers/USB/Core/AVR8/Template/Template_Endpoint_RW.c **** 			TEMPLATE_BUFFER_MOVE(DataStream, 1);
 1615               		.loc 3 71 0
 1616 007c CE01      		movw r24,r28
 1617 007e 0E94 0000 		call __eerd_byte_m32u4
 1618               	.LVL171:
 1619               	.LBB316:
 1620               	.LBB317:
 624:LUFA-111009/LUFA/Drivers/USB/Core/AVR8/../AVR8/../AVR8/Endpoint_AVR8.h **** 			}
 1621               		.loc 2 624 0
 1622 0082 8093 F100 		sts 241,r24
 1623               	.LBE317:
 1624               	.LBE316:
  72:LUFA-111009/LUFA/Drivers/USB/Core/AVR8/Template/Template_Endpoint_RW.c **** 			Length--;
 1625               		.loc 3 72 0
 1626 0086 2197      		sbiw r28,1
 1627               	.LVL172:
  73:LUFA-111009/LUFA/Drivers/USB/Core/AVR8/Template/Template_Endpoint_RW.c **** 			BytesInTransfer++;
 1628               		.loc 3 73 0
 1629 0088 0150      		subi r16,1
 1630 008a 1109      		sbc r17,__zero_reg__
 1631               	.LVL173:
  74:LUFA-111009/LUFA/Drivers/USB/Core/AVR8/Template/Template_Endpoint_RW.c **** 		}
 1632               		.loc 3 74 0
 1633 008c FFEF      		ldi r31,-1
 1634 008e CF1A      		sub r12,r31
 1635 0090 DF0A      		sbc r13,r31
 1636               	.LVL174:
 1637 0092 00C0      		rjmp .L123
 1638               	.LVL175:
 1639               	.L133:
  78:LUFA-111009/LUFA/Drivers/USB/Core/AVR8/Template/Template_Endpoint_RW.c **** }
 1640               		.loc 3 78 0
 1641 0094 80E0      		ldi r24,0
 1642               	.LVL176:
 1643               	.L121:
 1644               	/* epilogue start */
 1645               		.loc 3 79 0
 1646 0096 DF91      		pop r29
 1647 0098 CF91      		pop r28
 1648 009a 1F91      		pop r17
 1649 009c 0F91      		pop r16
 1650               	.LVL177:
 1651 009e FF90      		pop r15
 1652 00a0 EF90      		pop r14
 1653               	.LVL178:
 1654 00a2 DF90      		pop r13
 1655 00a4 CF90      		pop r12
 1656 00a6 0895      		ret
 1657               		.cfi_endproc
 1658               	.LFE90:
 1660               		.section	.text.Endpoint_Read_EStream_LE,"ax",@progbits
 1661               	.global	Endpoint_Read_EStream_LE
 1663               	Endpoint_Read_EStream_LE:
 1664               	.LFB91:
  36:LUFA-111009/LUFA/Drivers/USB/Core/AVR8/Template/Template_Endpoint_RW.c **** 	uint8_t* DataStream      = ((uint8_t*)Buffer + TEMPLATE_BUFFER_OFFSET(Length));
 1665               		.loc 3 36 0
 1666               		.cfi_startproc
 1667               	.LVL179:
 1668 0000 CF92      		push r12
 1669               	.LCFI76:
 1670               		.cfi_def_cfa_offset 3
 1671               		.cfi_offset 12, -2
 1672 0002 DF92      		push r13
 1673               	.LCFI77:
 1674               		.cfi_def_cfa_offset 4
 1675               		.cfi_offset 13, -3
 1676 0004 EF92      		push r14
 1677               	.LCFI78:
 1678               		.cfi_def_cfa_offset 5
 1679               		.cfi_offset 14, -4
 1680 0006 FF92      		push r15
 1681               	.LCFI79:
 1682               		.cfi_def_cfa_offset 6
 1683               		.cfi_offset 15, -5
 1684 0008 0F93      		push r16
 1685               	.LCFI80:
 1686               		.cfi_def_cfa_offset 7
 1687               		.cfi_offset 16, -6
 1688 000a 1F93      		push r17
 1689               	.LCFI81:
 1690               		.cfi_def_cfa_offset 8
 1691               		.cfi_offset 17, -7
 1692 000c CF93      		push r28
 1693               	.LCFI82:
 1694               		.cfi_def_cfa_offset 9
 1695               		.cfi_offset 28, -8
 1696 000e DF93      		push r29
 1697               	.LCFI83:
 1698               		.cfi_def_cfa_offset 10
 1699               		.cfi_offset 29, -9
 1700               	/* prologue: function */
 1701               	/* frame size = 0 */
 1702               	/* stack size = 8 */
 1703               	.L__stack_usage = 8
 1704 0010 7C01      		movw r14,r24
 1705 0012 EB01      		movw r28,r22
 1706 0014 8A01      		movw r16,r20
 1707               	.LVL180:
  41:LUFA-111009/LUFA/Drivers/USB/Core/AVR8/Template/Template_Endpoint_RW.c **** 	  return ErrorCode;
 1708               		.loc 3 41 0
 1709 0016 0E94 0000 		call Endpoint_WaitUntilReady
 1710               	.LVL181:
 1711 001a 8111      		cpse r24,__zero_reg__
 1712 001c 00C0      		rjmp .L135
  44:LUFA-111009/LUFA/Drivers/USB/Core/AVR8/Template/Template_Endpoint_RW.c **** 	{
 1713               		.loc 3 44 0
 1714 001e 0115      		cp r16,__zero_reg__
 1715 0020 1105      		cpc r17,__zero_reg__
 1716 0022 01F0      		breq .L136
  46:LUFA-111009/LUFA/Drivers/USB/Core/AVR8/Template/Template_Endpoint_RW.c **** 		TEMPLATE_BUFFER_MOVE(DataStream, *BytesProcessed);
 1717               		.loc 3 46 0
 1718 0024 F801      		movw r30,r16
 1719 0026 8081      		ld r24,Z
 1720 0028 9181      		ldd r25,Z+1
 1721               	.LVL182:
 1722 002a C81B      		sub r28,r24
 1723 002c D90B      		sbc r29,r25
 1724               	.LVL183:
  47:LUFA-111009/LUFA/Drivers/USB/Core/AVR8/Template/Template_Endpoint_RW.c **** 	}
 1725               		.loc 3 47 0
 1726 002e E80E      		add r14,r24
 1727 0030 F91E      		adc r15,r25
 1728               	.LVL184:
 1729               	.L136:
  37:LUFA-111009/LUFA/Drivers/USB/Core/AVR8/Template/Template_Endpoint_RW.c **** 	uint16_t BytesInTransfer = 0;
 1730               		.loc 3 37 0 discriminator 1
 1731 0032 C12C      		mov r12,__zero_reg__
 1732 0034 D12C      		mov r13,__zero_reg__
 1733               	.LVL185:
 1734               	.L137:
  50:LUFA-111009/LUFA/Drivers/USB/Core/AVR8/Template/Template_Endpoint_RW.c **** 	{
 1735               		.loc 3 50 0 discriminator 1
 1736 0036 2097      		sbiw r28,0
 1737 0038 01F0      		breq .L145
 1738               	.LBB318:
 1739               	.LBB319:
 420:LUFA-111009/LUFA/Drivers/USB/Core/AVR8/../AVR8/../AVR8/Endpoint_AVR8.h **** 			}
 1740               		.loc 2 420 0
 1741 003a 8091 E800 		lds r24,232
 1742               	.LBE319:
 1743               	.LBE318:
  52:LUFA-111009/LUFA/Drivers/USB/Core/AVR8/Template/Template_Endpoint_RW.c **** 		{
 1744               		.loc 3 52 0
 1745 003e 85FD      		sbrc r24,5
 1746 0040 00C0      		rjmp .L138
 1747               	.LBB320:
 1748               	.LBB321:
 531:LUFA-111009/LUFA/Drivers/USB/Core/AVR8/../AVR8/../AVR8/Endpoint_AVR8.h **** 				#else
 1749               		.loc 2 531 0
 1750 0042 8091 E800 		lds r24,232
 1751 0046 8B77      		andi r24,lo8(123)
 1752 0048 8093 E800 		sts 232,r24
 1753               	.LBE321:
 1754               	.LBE320:
  57:LUFA-111009/LUFA/Drivers/USB/Core/AVR8/Template/Template_Endpoint_RW.c **** 			#endif
 1755               		.loc 3 57 0
 1756 004c 0E94 0000 		call USB_USBTask
 1757               	.LVL186:
  60:LUFA-111009/LUFA/Drivers/USB/Core/AVR8/Template/Template_Endpoint_RW.c **** 			{
 1758               		.loc 3 60 0
 1759 0050 0115      		cp r16,__zero_reg__
 1760 0052 1105      		cpc r17,__zero_reg__
 1761 0054 01F0      		breq .L139
  62:LUFA-111009/LUFA/Drivers/USB/Core/AVR8/Template/Template_Endpoint_RW.c **** 				return ENDPOINT_RWSTREAM_IncompleteTransfer;
 1762               		.loc 3 62 0
 1763 0056 F801      		movw r30,r16
 1764 0058 8081      		ld r24,Z
 1765 005a 9181      		ldd r25,Z+1
 1766 005c 8C0D      		add r24,r12
 1767 005e 9D1D      		adc r25,r13
 1768 0060 9183      		std Z+1,r25
 1769 0062 8083      		st Z,r24
  63:LUFA-111009/LUFA/Drivers/USB/Core/AVR8/Template/Template_Endpoint_RW.c **** 			}
 1770               		.loc 3 63 0
 1771 0064 85E0      		ldi r24,lo8(5)
 1772 0066 00C0      		rjmp .L135
 1773               	.L139:
  66:LUFA-111009/LUFA/Drivers/USB/Core/AVR8/Template/Template_Endpoint_RW.c **** 			  return ErrorCode;
 1774               		.loc 3 66 0
 1775 0068 0E94 0000 		call Endpoint_WaitUntilReady
 1776               	.LVL187:
 1777 006c 8823      		tst r24
 1778 006e 01F0      		breq .L137
 1779 0070 00C0      		rjmp .L135
 1780               	.LVL188:
 1781               	.L138:
 1782               	.LBB322:
 1783               	.LBB323:
 612:LUFA-111009/LUFA/Drivers/USB/Core/AVR8/../AVR8/../AVR8/Endpoint_AVR8.h **** 			}
 1784               		.loc 2 612 0
 1785 0072 6091 F100 		lds r22,241
 1786               	.LBE323:
 1787               	.LBE322:
  71:LUFA-111009/LUFA/Drivers/USB/Core/AVR8/Template/Template_Endpoint_RW.c **** 			TEMPLATE_BUFFER_MOVE(DataStream, 1);
 1788               		.loc 3 71 0
 1789 0076 C701      		movw r24,r14
 1790 0078 0E94 0000 		call __eeupd_byte_m32u4
 1791               	.LVL189:
  72:LUFA-111009/LUFA/Drivers/USB/Core/AVR8/Template/Template_Endpoint_RW.c **** 			Length--;
 1792               		.loc 3 72 0
 1793 007c FFEF      		ldi r31,-1
 1794 007e EF1A      		sub r14,r31
 1795 0080 FF0A      		sbc r15,r31
 1796               	.LVL190:
  73:LUFA-111009/LUFA/Drivers/USB/Core/AVR8/Template/Template_Endpoint_RW.c **** 			BytesInTransfer++;
 1797               		.loc 3 73 0
 1798 0082 2197      		sbiw r28,1
 1799               	.LVL191:
  74:LUFA-111009/LUFA/Drivers/USB/Core/AVR8/Template/Template_Endpoint_RW.c **** 		}
 1800               		.loc 3 74 0
 1801 0084 8FEF      		ldi r24,-1
 1802 0086 C81A      		sub r12,r24
 1803 0088 D80A      		sbc r13,r24
 1804               	.LVL192:
 1805 008a 00C0      		rjmp .L137
 1806               	.L145:
  78:LUFA-111009/LUFA/Drivers/USB/Core/AVR8/Template/Template_Endpoint_RW.c **** }
 1807               		.loc 3 78 0
 1808 008c 80E0      		ldi r24,0
 1809               	.LVL193:
 1810               	.L135:
 1811               	/* epilogue start */
 1812               		.loc 3 79 0
 1813 008e DF91      		pop r29
 1814 0090 CF91      		pop r28
 1815               	.LVL194:
 1816 0092 1F91      		pop r17
 1817 0094 0F91      		pop r16
 1818               	.LVL195:
 1819 0096 FF90      		pop r15
 1820 0098 EF90      		pop r14
 1821               	.LVL196:
 1822 009a DF90      		pop r13
 1823 009c CF90      		pop r12
 1824 009e 0895      		ret
 1825               		.cfi_endproc
 1826               	.LFE91:
 1828               		.section	.text.Endpoint_Read_EStream_BE,"ax",@progbits
 1829               	.global	Endpoint_Read_EStream_BE
 1831               	Endpoint_Read_EStream_BE:
 1832               	.LFB92:
  36:LUFA-111009/LUFA/Drivers/USB/Core/AVR8/Template/Template_Endpoint_RW.c **** 	uint8_t* DataStream      = ((uint8_t*)Buffer + TEMPLATE_BUFFER_OFFSET(Length));
 1833               		.loc 3 36 0
 1834               		.cfi_startproc
 1835               	.LVL197:
 1836 0000 CF92      		push r12
 1837               	.LCFI84:
 1838               		.cfi_def_cfa_offset 3
 1839               		.cfi_offset 12, -2
 1840 0002 DF92      		push r13
 1841               	.LCFI85:
 1842               		.cfi_def_cfa_offset 4
 1843               		.cfi_offset 13, -3
 1844 0004 EF92      		push r14
 1845               	.LCFI86:
 1846               		.cfi_def_cfa_offset 5
 1847               		.cfi_offset 14, -4
 1848 0006 FF92      		push r15
 1849               	.LCFI87:
 1850               		.cfi_def_cfa_offset 6
 1851               		.cfi_offset 15, -5
 1852 0008 0F93      		push r16
 1853               	.LCFI88:
 1854               		.cfi_def_cfa_offset 7
 1855               		.cfi_offset 16, -6
 1856 000a 1F93      		push r17
 1857               	.LCFI89:
 1858               		.cfi_def_cfa_offset 8
 1859               		.cfi_offset 17, -7
 1860 000c CF93      		push r28
 1861               	.LCFI90:
 1862               		.cfi_def_cfa_offset 9
 1863               		.cfi_offset 28, -8
 1864 000e DF93      		push r29
 1865               	.LCFI91:
 1866               		.cfi_def_cfa_offset 10
 1867               		.cfi_offset 29, -9
 1868               	/* prologue: function */
 1869               	/* frame size = 0 */
 1870               	/* stack size = 8 */
 1871               	.L__stack_usage = 8
 1872 0010 6C01      		movw r12,r24
 1873 0012 8B01      		movw r16,r22
 1874 0014 7A01      		movw r14,r20
 1875               	.LVL198:
  41:LUFA-111009/LUFA/Drivers/USB/Core/AVR8/Template/Template_Endpoint_RW.c **** 	  return ErrorCode;
 1876               		.loc 3 41 0
 1877 0016 0E94 0000 		call Endpoint_WaitUntilReady
 1878               	.LVL199:
 1879 001a 8111      		cpse r24,__zero_reg__
 1880 001c 00C0      		rjmp .L147
  37:LUFA-111009/LUFA/Drivers/USB/Core/AVR8/Template/Template_Endpoint_RW.c **** 	uint16_t BytesInTransfer = 0;
 1881               		.loc 3 37 0
 1882 001e E801      		movw r28,r16
 1883 0020 2197      		sbiw r28,1
 1884               	.LVL200:
 1885 0022 CC0D      		add r28,r12
 1886 0024 DD1D      		adc r29,r13
 1887               	.LVL201:
  44:LUFA-111009/LUFA/Drivers/USB/Core/AVR8/Template/Template_Endpoint_RW.c **** 	{
 1888               		.loc 3 44 0
 1889 0026 E114      		cp r14,__zero_reg__
 1890 0028 F104      		cpc r15,__zero_reg__
 1891 002a 01F0      		breq .L148
  46:LUFA-111009/LUFA/Drivers/USB/Core/AVR8/Template/Template_Endpoint_RW.c **** 		TEMPLATE_BUFFER_MOVE(DataStream, *BytesProcessed);
 1892               		.loc 3 46 0
 1893 002c F701      		movw r30,r14
 1894 002e 8081      		ld r24,Z
 1895 0030 9181      		ldd r25,Z+1
 1896               	.LVL202:
 1897 0032 081B      		sub r16,r24
 1898 0034 190B      		sbc r17,r25
 1899               	.LVL203:
  47:LUFA-111009/LUFA/Drivers/USB/Core/AVR8/Template/Template_Endpoint_RW.c **** 	}
 1900               		.loc 3 47 0
 1901 0036 C81B      		sub r28,r24
 1902 0038 D90B      		sbc r29,r25
 1903               	.LVL204:
 1904               	.L148:
  36:LUFA-111009/LUFA/Drivers/USB/Core/AVR8/Template/Template_Endpoint_RW.c **** 	uint8_t* DataStream      = ((uint8_t*)Buffer + TEMPLATE_BUFFER_OFFSET(Length));
 1905               		.loc 3 36 0 discriminator 1
 1906 003a C12C      		mov r12,__zero_reg__
 1907 003c D12C      		mov r13,__zero_reg__
 1908               	.LVL205:
 1909               	.L149:
  50:LUFA-111009/LUFA/Drivers/USB/Core/AVR8/Template/Template_Endpoint_RW.c **** 	{
 1910               		.loc 3 50 0 discriminator 1
 1911 003e 0115      		cp r16,__zero_reg__
 1912 0040 1105      		cpc r17,__zero_reg__
 1913 0042 01F0      		breq .L159
 1914               	.LBB324:
 1915               	.LBB325:
 420:LUFA-111009/LUFA/Drivers/USB/Core/AVR8/../AVR8/../AVR8/Endpoint_AVR8.h **** 			}
 1916               		.loc 2 420 0
 1917 0044 8091 E800 		lds r24,232
 1918               	.LBE325:
 1919               	.LBE324:
  52:LUFA-111009/LUFA/Drivers/USB/Core/AVR8/Template/Template_Endpoint_RW.c **** 		{
 1920               		.loc 3 52 0
 1921 0048 85FD      		sbrc r24,5
 1922 004a 00C0      		rjmp .L150
 1923               	.LBB326:
 1924               	.LBB327:
 531:LUFA-111009/LUFA/Drivers/USB/Core/AVR8/../AVR8/../AVR8/Endpoint_AVR8.h **** 				#else
 1925               		.loc 2 531 0
 1926 004c 8091 E800 		lds r24,232
 1927 0050 8B77      		andi r24,lo8(123)
 1928 0052 8093 E800 		sts 232,r24
 1929               	.LBE327:
 1930               	.LBE326:
  57:LUFA-111009/LUFA/Drivers/USB/Core/AVR8/Template/Template_Endpoint_RW.c **** 			#endif
 1931               		.loc 3 57 0
 1932 0056 0E94 0000 		call USB_USBTask
 1933               	.LVL206:
  60:LUFA-111009/LUFA/Drivers/USB/Core/AVR8/Template/Template_Endpoint_RW.c **** 			{
 1934               		.loc 3 60 0
 1935 005a E114      		cp r14,__zero_reg__
 1936 005c F104      		cpc r15,__zero_reg__
 1937 005e 01F0      		breq .L151
  62:LUFA-111009/LUFA/Drivers/USB/Core/AVR8/Template/Template_Endpoint_RW.c **** 				return ENDPOINT_RWSTREAM_IncompleteTransfer;
 1938               		.loc 3 62 0
 1939 0060 F701      		movw r30,r14
 1940 0062 8081      		ld r24,Z
 1941 0064 9181      		ldd r25,Z+1
 1942 0066 8C0D      		add r24,r12
 1943 0068 9D1D      		adc r25,r13
 1944 006a 9183      		std Z+1,r25
 1945 006c 8083      		st Z,r24
  63:LUFA-111009/LUFA/Drivers/USB/Core/AVR8/Template/Template_Endpoint_RW.c **** 			}
 1946               		.loc 3 63 0
 1947 006e 85E0      		ldi r24,lo8(5)
 1948 0070 00C0      		rjmp .L147
 1949               	.L151:
  66:LUFA-111009/LUFA/Drivers/USB/Core/AVR8/Template/Template_Endpoint_RW.c **** 			  return ErrorCode;
 1950               		.loc 3 66 0
 1951 0072 0E94 0000 		call Endpoint_WaitUntilReady
 1952               	.LVL207:
 1953 0076 8823      		tst r24
 1954 0078 01F0      		breq .L149
 1955 007a 00C0      		rjmp .L147
 1956               	.LVL208:
 1957               	.L150:
 1958               	.LBB328:
 1959               	.LBB329:
 612:LUFA-111009/LUFA/Drivers/USB/Core/AVR8/../AVR8/../AVR8/Endpoint_AVR8.h **** 			}
 1960               		.loc 2 612 0
 1961 007c 6091 F100 		lds r22,241
 1962               	.LBE329:
 1963               	.LBE328:
  71:LUFA-111009/LUFA/Drivers/USB/Core/AVR8/Template/Template_Endpoint_RW.c **** 			TEMPLATE_BUFFER_MOVE(DataStream, 1);
 1964               		.loc 3 71 0
 1965 0080 CE01      		movw r24,r28
 1966 0082 0E94 0000 		call __eeupd_byte_m32u4
 1967               	.LVL209:
  72:LUFA-111009/LUFA/Drivers/USB/Core/AVR8/Template/Template_Endpoint_RW.c **** 			Length--;
 1968               		.loc 3 72 0
 1969 0086 2197      		sbiw r28,1
 1970               	.LVL210:
  73:LUFA-111009/LUFA/Drivers/USB/Core/AVR8/Template/Template_Endpoint_RW.c **** 			BytesInTransfer++;
 1971               		.loc 3 73 0
 1972 0088 0150      		subi r16,1
 1973 008a 1109      		sbc r17,__zero_reg__
 1974               	.LVL211:
  74:LUFA-111009/LUFA/Drivers/USB/Core/AVR8/Template/Template_Endpoint_RW.c **** 		}
 1975               		.loc 3 74 0
 1976 008c FFEF      		ldi r31,-1
 1977 008e CF1A      		sub r12,r31
 1978 0090 DF0A      		sbc r13,r31
 1979               	.LVL212:
 1980 0092 00C0      		rjmp .L149
 1981               	.L159:
  78:LUFA-111009/LUFA/Drivers/USB/Core/AVR8/Template/Template_Endpoint_RW.c **** }
 1982               		.loc 3 78 0
 1983 0094 80E0      		ldi r24,0
 1984               	.LVL213:
 1985               	.L147:
 1986               	/* epilogue start */
 1987               		.loc 3 79 0
 1988 0096 DF91      		pop r29
 1989 0098 CF91      		pop r28
 1990 009a 1F91      		pop r17
 1991 009c 0F91      		pop r16
 1992               	.LVL214:
 1993 009e FF90      		pop r15
 1994 00a0 EF90      		pop r14
 1995               	.LVL215:
 1996 00a2 DF90      		pop r13
 1997 00a4 CF90      		pop r12
 1998 00a6 0895      		ret
 1999               		.cfi_endproc
 2000               	.LFE92:
 2002               		.section	.text.Endpoint_Write_Control_Stream_LE,"ax",@progbits
 2003               	.global	Endpoint_Write_Control_Stream_LE
 2005               	Endpoint_Write_Control_Stream_LE:
 2006               	.LFB93:
 2007               		.file 4 "LUFA-111009/LUFA/Drivers/USB/Core/AVR8/Template/Template_Endpoint_Control_W.c"
   1:LUFA-111009/LUFA/Drivers/USB/Core/AVR8/Template/Template_Endpoint_Control_W.c **** /*
   2:LUFA-111009/LUFA/Drivers/USB/Core/AVR8/Template/Template_Endpoint_Control_W.c ****              LUFA Library
   3:LUFA-111009/LUFA/Drivers/USB/Core/AVR8/Template/Template_Endpoint_Control_W.c ****      Copyright (C) Dean Camera, 2011.
   4:LUFA-111009/LUFA/Drivers/USB/Core/AVR8/Template/Template_Endpoint_Control_W.c **** 
   5:LUFA-111009/LUFA/Drivers/USB/Core/AVR8/Template/Template_Endpoint_Control_W.c ****   dean [at] fourwalledcubicle [dot] com
   6:LUFA-111009/LUFA/Drivers/USB/Core/AVR8/Template/Template_Endpoint_Control_W.c ****            www.lufa-lib.org
   7:LUFA-111009/LUFA/Drivers/USB/Core/AVR8/Template/Template_Endpoint_Control_W.c **** */
   8:LUFA-111009/LUFA/Drivers/USB/Core/AVR8/Template/Template_Endpoint_Control_W.c **** 
   9:LUFA-111009/LUFA/Drivers/USB/Core/AVR8/Template/Template_Endpoint_Control_W.c **** /*
  10:LUFA-111009/LUFA/Drivers/USB/Core/AVR8/Template/Template_Endpoint_Control_W.c ****   Copyright 2011  Dean Camera (dean [at] fourwalledcubicle [dot] com)
  11:LUFA-111009/LUFA/Drivers/USB/Core/AVR8/Template/Template_Endpoint_Control_W.c **** 
  12:LUFA-111009/LUFA/Drivers/USB/Core/AVR8/Template/Template_Endpoint_Control_W.c ****   Permission to use, copy, modify, distribute, and sell this
  13:LUFA-111009/LUFA/Drivers/USB/Core/AVR8/Template/Template_Endpoint_Control_W.c ****   software and its documentation for any purpose is hereby granted
  14:LUFA-111009/LUFA/Drivers/USB/Core/AVR8/Template/Template_Endpoint_Control_W.c ****   without fee, provided that the above copyright notice appear in
  15:LUFA-111009/LUFA/Drivers/USB/Core/AVR8/Template/Template_Endpoint_Control_W.c ****   all copies and that both that the copyright notice and this
  16:LUFA-111009/LUFA/Drivers/USB/Core/AVR8/Template/Template_Endpoint_Control_W.c ****   permission notice and warranty disclaimer appear in supporting
  17:LUFA-111009/LUFA/Drivers/USB/Core/AVR8/Template/Template_Endpoint_Control_W.c ****   documentation, and that the name of the author not be used in
  18:LUFA-111009/LUFA/Drivers/USB/Core/AVR8/Template/Template_Endpoint_Control_W.c ****   advertising or publicity pertaining to distribution of the
  19:LUFA-111009/LUFA/Drivers/USB/Core/AVR8/Template/Template_Endpoint_Control_W.c ****   software without specific, written prior permission.
  20:LUFA-111009/LUFA/Drivers/USB/Core/AVR8/Template/Template_Endpoint_Control_W.c **** 
  21:LUFA-111009/LUFA/Drivers/USB/Core/AVR8/Template/Template_Endpoint_Control_W.c ****   The author disclaim all warranties with regard to this
  22:LUFA-111009/LUFA/Drivers/USB/Core/AVR8/Template/Template_Endpoint_Control_W.c ****   software, including all implied warranties of merchantability
  23:LUFA-111009/LUFA/Drivers/USB/Core/AVR8/Template/Template_Endpoint_Control_W.c ****   and fitness.  In no event shall the author be liable for any
  24:LUFA-111009/LUFA/Drivers/USB/Core/AVR8/Template/Template_Endpoint_Control_W.c ****   special, indirect or consequential damages or any damages
  25:LUFA-111009/LUFA/Drivers/USB/Core/AVR8/Template/Template_Endpoint_Control_W.c ****   whatsoever resulting from loss of use, data or profits, whether
  26:LUFA-111009/LUFA/Drivers/USB/Core/AVR8/Template/Template_Endpoint_Control_W.c ****   in an action of contract, negligence or other tortious action,
  27:LUFA-111009/LUFA/Drivers/USB/Core/AVR8/Template/Template_Endpoint_Control_W.c ****   arising out of or in connection with the use or performance of
  28:LUFA-111009/LUFA/Drivers/USB/Core/AVR8/Template/Template_Endpoint_Control_W.c ****   this software.
  29:LUFA-111009/LUFA/Drivers/USB/Core/AVR8/Template/Template_Endpoint_Control_W.c **** */
  30:LUFA-111009/LUFA/Drivers/USB/Core/AVR8/Template/Template_Endpoint_Control_W.c **** 
  31:LUFA-111009/LUFA/Drivers/USB/Core/AVR8/Template/Template_Endpoint_Control_W.c **** #if defined(TEMPLATE_FUNC_NAME)
  32:LUFA-111009/LUFA/Drivers/USB/Core/AVR8/Template/Template_Endpoint_Control_W.c **** 
  33:LUFA-111009/LUFA/Drivers/USB/Core/AVR8/Template/Template_Endpoint_Control_W.c **** uint8_t TEMPLATE_FUNC_NAME (const void* const Buffer,
  34:LUFA-111009/LUFA/Drivers/USB/Core/AVR8/Template/Template_Endpoint_Control_W.c ****                             uint16_t Length)
  35:LUFA-111009/LUFA/Drivers/USB/Core/AVR8/Template/Template_Endpoint_Control_W.c **** {
 2008               		.loc 4 35 0
 2009               		.cfi_startproc
 2010               	.LVL216:
 2011               	/* prologue: function */
 2012               	/* frame size = 0 */
 2013               	/* stack size = 0 */
 2014               	.L__stack_usage = 0
  36:LUFA-111009/LUFA/Drivers/USB/Core/AVR8/Template/Template_Endpoint_Control_W.c **** 	uint8_t* DataStream     = ((uint8_t*)Buffer + TEMPLATE_BUFFER_OFFSET(Length));
  37:LUFA-111009/LUFA/Drivers/USB/Core/AVR8/Template/Template_Endpoint_Control_W.c **** 	bool     LastPacketFull = false;
  38:LUFA-111009/LUFA/Drivers/USB/Core/AVR8/Template/Template_Endpoint_Control_W.c **** 
  39:LUFA-111009/LUFA/Drivers/USB/Core/AVR8/Template/Template_Endpoint_Control_W.c **** 	if (Length > USB_ControlRequest.wLength)
 2015               		.loc 4 39 0
 2016 0000 2091 0000 		lds r18,USB_ControlRequest+6
 2017 0004 3091 0000 		lds r19,USB_ControlRequest+6+1
 2018 0008 2617      		cp r18,r22
 2019 000a 3707      		cpc r19,r23
 2020 000c 00F0      		brlo .L175
  40:LUFA-111009/LUFA/Drivers/USB/Core/AVR8/Template/Template_Endpoint_Control_W.c **** 	  Length = USB_ControlRequest.wLength;
  41:LUFA-111009/LUFA/Drivers/USB/Core/AVR8/Template/Template_Endpoint_Control_W.c **** 	else if (!(Length))
 2021               		.loc 4 41 0
 2022 000e 6115      		cp r22,__zero_reg__
 2023 0010 7105      		cpc r23,__zero_reg__
 2024 0012 01F4      		brne .L161
 2025               	.LBB330:
 2026               	.LBB331:
 516:LUFA-111009/LUFA/Drivers/USB/Core/AVR8/../AVR8/../AVR8/Endpoint_AVR8.h **** 				#else
 2027               		.loc 2 516 0
 2028 0014 2091 E800 		lds r18,232
 2029 0018 2E77      		andi r18,lo8(126)
 2030 001a 2093 E800 		sts 232,r18
 2031 001e 00C0      		rjmp .L161
 2032               	.L175:
 2033               	.LBE331:
 2034               	.LBE330:
 2035 0020 B901      		movw r22,r18
 2036               	.LVL217:
 2037               	.L161:
 2038 0022 FC01      		movw r30,r24
 2039 0024 20E0      		ldi r18,0
 2040               	.LVL218:
 2041               	.L167:
  42:LUFA-111009/LUFA/Drivers/USB/Core/AVR8/Template/Template_Endpoint_Control_W.c **** 	  Endpoint_ClearIN();
  43:LUFA-111009/LUFA/Drivers/USB/Core/AVR8/Template/Template_Endpoint_Control_W.c **** 
  44:LUFA-111009/LUFA/Drivers/USB/Core/AVR8/Template/Template_Endpoint_Control_W.c **** 	while (Length || LastPacketFull)
 2042               		.loc 4 44 0 discriminator 1
 2043 0026 6115      		cp r22,__zero_reg__
 2044 0028 7105      		cpc r23,__zero_reg__
 2045 002a 01F0      		breq .L187
 2046               	.L172:
 2047               	.LBB332:
  45:LUFA-111009/LUFA/Drivers/USB/Core/AVR8/Template/Template_Endpoint_Control_W.c **** 	{
  46:LUFA-111009/LUFA/Drivers/USB/Core/AVR8/Template/Template_Endpoint_Control_W.c **** 		uint8_t USB_DeviceState_LCL = USB_DeviceState;
 2048               		.loc 4 46 0
 2049 002c 8EB3      		in r24,0x1e
 2050               	.LVL219:
  47:LUFA-111009/LUFA/Drivers/USB/Core/AVR8/Template/Template_Endpoint_Control_W.c **** 
  48:LUFA-111009/LUFA/Drivers/USB/Core/AVR8/Template/Template_Endpoint_Control_W.c **** 		if (USB_DeviceState_LCL == DEVICE_STATE_Unattached)
 2051               		.loc 4 48 0
 2052 002e 8823      		tst r24
 2053 0030 01F0      		breq .L179
  49:LUFA-111009/LUFA/Drivers/USB/Core/AVR8/Template/Template_Endpoint_Control_W.c **** 		  return ENDPOINT_RWCSTREAM_DeviceDisconnected;
  50:LUFA-111009/LUFA/Drivers/USB/Core/AVR8/Template/Template_Endpoint_Control_W.c **** 		else if (USB_DeviceState_LCL == DEVICE_STATE_Suspended)
 2054               		.loc 4 50 0
 2055 0032 8530      		cpi r24,lo8(5)
 2056 0034 01F0      		breq .L180
 2057               	.LBB333:
 2058               	.LBB334:
 491:LUFA-111009/LUFA/Drivers/USB/Core/AVR8/../AVR8/../AVR8/Endpoint_AVR8.h **** 			}
 2059               		.loc 2 491 0
 2060 0036 8091 E800 		lds r24,232
 2061               	.LVL220:
 2062               	.LBE334:
 2063               	.LBE333:
  51:LUFA-111009/LUFA/Drivers/USB/Core/AVR8/Template/Template_Endpoint_Control_W.c **** 		  return ENDPOINT_RWCSTREAM_BusSuspended;
  52:LUFA-111009/LUFA/Drivers/USB/Core/AVR8/Template/Template_Endpoint_Control_W.c **** 		else if (Endpoint_IsSETUPReceived())
 2064               		.loc 4 52 0
 2065 003a 83FD      		sbrc r24,3
 2066 003c 00C0      		rjmp .L178
 2067               	.LBB335:
 2068               	.LBB336:
 479:LUFA-111009/LUFA/Drivers/USB/Core/AVR8/../AVR8/../AVR8/Endpoint_AVR8.h **** 			}
 2069               		.loc 2 479 0
 2070 003e 8091 E800 		lds r24,232
 2071               	.LBE336:
 2072               	.LBE335:
  53:LUFA-111009/LUFA/Drivers/USB/Core/AVR8/Template/Template_Endpoint_Control_W.c **** 		  return ENDPOINT_RWCSTREAM_HostAborted;
  54:LUFA-111009/LUFA/Drivers/USB/Core/AVR8/Template/Template_Endpoint_Control_W.c **** 		else if (Endpoint_IsOUTReceived())
 2073               		.loc 4 54 0
 2074 0042 82FF      		sbrs r24,2
 2075 0044 00C0      		rjmp .L164
 2076               	.L174:
 2077               	.LBE332:
 2078               	.LBB346:
 2079               	.LBB347:
 479:LUFA-111009/LUFA/Drivers/USB/Core/AVR8/../AVR8/../AVR8/Endpoint_AVR8.h **** 			}
 2080               		.loc 2 479 0 discriminator 1
 2081 0046 8091 E800 		lds r24,232
 2082               	.LBE347:
 2083               	.LBE346:
  55:LUFA-111009/LUFA/Drivers/USB/Core/AVR8/Template/Template_Endpoint_Control_W.c **** 		  break;
  56:LUFA-111009/LUFA/Drivers/USB/Core/AVR8/Template/Template_Endpoint_Control_W.c **** 
  57:LUFA-111009/LUFA/Drivers/USB/Core/AVR8/Template/Template_Endpoint_Control_W.c **** 		if (Endpoint_IsINReady())
  58:LUFA-111009/LUFA/Drivers/USB/Core/AVR8/Template/Template_Endpoint_Control_W.c **** 		{
  59:LUFA-111009/LUFA/Drivers/USB/Core/AVR8/Template/Template_Endpoint_Control_W.c **** 			uint16_t BytesInEndpoint = Endpoint_BytesInEndpoint();
  60:LUFA-111009/LUFA/Drivers/USB/Core/AVR8/Template/Template_Endpoint_Control_W.c **** 
  61:LUFA-111009/LUFA/Drivers/USB/Core/AVR8/Template/Template_Endpoint_Control_W.c **** 			while (Length && (BytesInEndpoint < USB_Device_ControlEndpointSize))
  62:LUFA-111009/LUFA/Drivers/USB/Core/AVR8/Template/Template_Endpoint_Control_W.c **** 			{
  63:LUFA-111009/LUFA/Drivers/USB/Core/AVR8/Template/Template_Endpoint_Control_W.c **** 				TEMPLATE_TRANSFER_BYTE(DataStream);
  64:LUFA-111009/LUFA/Drivers/USB/Core/AVR8/Template/Template_Endpoint_Control_W.c **** 				TEMPLATE_BUFFER_MOVE(DataStream, 1);
  65:LUFA-111009/LUFA/Drivers/USB/Core/AVR8/Template/Template_Endpoint_Control_W.c **** 				Length--;
  66:LUFA-111009/LUFA/Drivers/USB/Core/AVR8/Template/Template_Endpoint_Control_W.c **** 				BytesInEndpoint++;
  67:LUFA-111009/LUFA/Drivers/USB/Core/AVR8/Template/Template_Endpoint_Control_W.c **** 			}
  68:LUFA-111009/LUFA/Drivers/USB/Core/AVR8/Template/Template_Endpoint_Control_W.c **** 
  69:LUFA-111009/LUFA/Drivers/USB/Core/AVR8/Template/Template_Endpoint_Control_W.c **** 			LastPacketFull = (BytesInEndpoint == USB_Device_ControlEndpointSize);
  70:LUFA-111009/LUFA/Drivers/USB/Core/AVR8/Template/Template_Endpoint_Control_W.c **** 			Endpoint_ClearIN();
  71:LUFA-111009/LUFA/Drivers/USB/Core/AVR8/Template/Template_Endpoint_Control_W.c **** 		}
  72:LUFA-111009/LUFA/Drivers/USB/Core/AVR8/Template/Template_Endpoint_Control_W.c **** 	}
  73:LUFA-111009/LUFA/Drivers/USB/Core/AVR8/Template/Template_Endpoint_Control_W.c **** 
  74:LUFA-111009/LUFA/Drivers/USB/Core/AVR8/Template/Template_Endpoint_Control_W.c **** 	while (!(Endpoint_IsOUTReceived()))
 2084               		.loc 4 74 0 discriminator 1
 2085 004a 82FF      		sbrs r24,2
 2086 004c 00C0      		rjmp .L165
  75:LUFA-111009/LUFA/Drivers/USB/Core/AVR8/Template/Template_Endpoint_Control_W.c **** 	{
  76:LUFA-111009/LUFA/Drivers/USB/Core/AVR8/Template/Template_Endpoint_Control_W.c **** 		uint8_t USB_DeviceState_LCL = USB_DeviceState;
  77:LUFA-111009/LUFA/Drivers/USB/Core/AVR8/Template/Template_Endpoint_Control_W.c **** 
  78:LUFA-111009/LUFA/Drivers/USB/Core/AVR8/Template/Template_Endpoint_Control_W.c **** 		if (USB_DeviceState_LCL == DEVICE_STATE_Unattached)
  79:LUFA-111009/LUFA/Drivers/USB/Core/AVR8/Template/Template_Endpoint_Control_W.c **** 		  return ENDPOINT_RWCSTREAM_DeviceDisconnected;
  80:LUFA-111009/LUFA/Drivers/USB/Core/AVR8/Template/Template_Endpoint_Control_W.c **** 		else if (USB_DeviceState_LCL == DEVICE_STATE_Suspended)
  81:LUFA-111009/LUFA/Drivers/USB/Core/AVR8/Template/Template_Endpoint_Control_W.c **** 		  return ENDPOINT_RWCSTREAM_BusSuspended;
  82:LUFA-111009/LUFA/Drivers/USB/Core/AVR8/Template/Template_Endpoint_Control_W.c **** 	}
  83:LUFA-111009/LUFA/Drivers/USB/Core/AVR8/Template/Template_Endpoint_Control_W.c **** 
  84:LUFA-111009/LUFA/Drivers/USB/Core/AVR8/Template/Template_Endpoint_Control_W.c **** 	return ENDPOINT_RWCSTREAM_NoError;
 2087               		.loc 4 84 0
 2088 004e 80E0      		ldi r24,0
 2089 0050 0895      		ret
 2090               	.L164:
 2091               	.LBB348:
 2092               	.LBB337:
 2093               	.LBB338:
 467:LUFA-111009/LUFA/Drivers/USB/Core/AVR8/../AVR8/../AVR8/Endpoint_AVR8.h **** 			}
 2094               		.loc 2 467 0
 2095 0052 8091 E800 		lds r24,232
 2096               	.LBE338:
 2097               	.LBE337:
  57:LUFA-111009/LUFA/Drivers/USB/Core/AVR8/Template/Template_Endpoint_Control_W.c **** 		{
 2098               		.loc 4 57 0
 2099 0056 80FF      		sbrs r24,0
 2100 0058 00C0      		rjmp .L167
 2101               	.LBB339:
 2102               	.LBB340:
 2103               	.LBB341:
 295:LUFA-111009/LUFA/Drivers/USB/Core/AVR8/../AVR8/../AVR8/Endpoint_AVR8.h **** 				#elif defined(USB_SERIES_2_AVR)
 2104               		.loc 2 295 0
 2105 005a 2091 F300 		lds r18,243
 2106               	.LVL221:
 2107 005e 8091 F200 		lds r24,242
 2108 0062 90E0      		ldi r25,0
 2109 0064 922B      		or r25,r18
 2110               	.L168:
 2111               	.LVL222:
 2112               	.LBE341:
 2113               	.LBE340:
  61:LUFA-111009/LUFA/Drivers/USB/Core/AVR8/Template/Template_Endpoint_Control_W.c **** 			{
 2114               		.loc 4 61 0 discriminator 1
 2115 0066 6115      		cp r22,__zero_reg__
 2116 0068 7105      		cpc r23,__zero_reg__
 2117 006a 01F0      		breq .L169
  61:LUFA-111009/LUFA/Drivers/USB/Core/AVR8/Template/Template_Endpoint_Control_W.c **** 			{
 2118               		.loc 4 61 0 is_stmt 0 discriminator 2
 2119 006c 8830      		cpi r24,8
 2120 006e 9105      		cpc r25,__zero_reg__
 2121 0070 00F4      		brsh .L169
  63:LUFA-111009/LUFA/Drivers/USB/Core/AVR8/Template/Template_Endpoint_Control_W.c **** 				TEMPLATE_BUFFER_MOVE(DataStream, 1);
 2122               		.loc 4 63 0 is_stmt 1
 2123 0072 2191      		ld r18,Z+
 2124               	.LVL223:
 2125               	.LBB342:
 2126               	.LBB343:
 624:LUFA-111009/LUFA/Drivers/USB/Core/AVR8/../AVR8/../AVR8/Endpoint_AVR8.h **** 			}
 2127               		.loc 2 624 0
 2128 0074 2093 F100 		sts 241,r18
 2129               	.LVL224:
 2130               	.LBE343:
 2131               	.LBE342:
  65:LUFA-111009/LUFA/Drivers/USB/Core/AVR8/Template/Template_Endpoint_Control_W.c **** 				BytesInEndpoint++;
 2132               		.loc 4 65 0
 2133 0078 6150      		subi r22,1
 2134 007a 7109      		sbc r23,__zero_reg__
 2135               	.LVL225:
  66:LUFA-111009/LUFA/Drivers/USB/Core/AVR8/Template/Template_Endpoint_Control_W.c **** 			}
 2136               		.loc 4 66 0
 2137 007c 0196      		adiw r24,1
 2138               	.LVL226:
 2139 007e 00C0      		rjmp .L168
 2140               	.LVL227:
 2141               	.L169:
  69:LUFA-111009/LUFA/Drivers/USB/Core/AVR8/Template/Template_Endpoint_Control_W.c **** 			Endpoint_ClearIN();
 2142               		.loc 4 69 0
 2143 0080 21E0      		ldi r18,lo8(1)
 2144 0082 0897      		sbiw r24,8
 2145 0084 01F0      		breq .L171
 2146 0086 20E0      		ldi r18,0
 2147               	.L171:
 2148               	.LVL228:
 2149               	.LBB344:
 2150               	.LBB345:
 516:LUFA-111009/LUFA/Drivers/USB/Core/AVR8/../AVR8/../AVR8/Endpoint_AVR8.h **** 				#else
 2151               		.loc 2 516 0
 2152 0088 8091 E800 		lds r24,232
 2153               	.LVL229:
 2154 008c 8E77      		andi r24,lo8(126)
 2155 008e 8093 E800 		sts 232,r24
 2156 0092 00C0      		rjmp .L167
 2157               	.L187:
 2158               	.LBE345:
 2159               	.LBE344:
 2160               	.LBE339:
 2161               	.LBE348:
  44:LUFA-111009/LUFA/Drivers/USB/Core/AVR8/Template/Template_Endpoint_Control_W.c **** 	{
 2162               		.loc 4 44 0 discriminator 2
 2163 0094 2111      		cpse r18,__zero_reg__
 2164 0096 00C0      		rjmp .L172
 2165 0098 00C0      		rjmp .L174
 2166               	.L165:
 2167               	.LBB349:
  76:LUFA-111009/LUFA/Drivers/USB/Core/AVR8/Template/Template_Endpoint_Control_W.c **** 
 2168               		.loc 4 76 0
 2169 009a 8EB3      		in r24,0x1e
 2170               	.LVL230:
  78:LUFA-111009/LUFA/Drivers/USB/Core/AVR8/Template/Template_Endpoint_Control_W.c **** 		  return ENDPOINT_RWCSTREAM_DeviceDisconnected;
 2171               		.loc 4 78 0
 2172 009c 8823      		tst r24
 2173 009e 01F0      		breq .L179
  80:LUFA-111009/LUFA/Drivers/USB/Core/AVR8/Template/Template_Endpoint_Control_W.c **** 		  return ENDPOINT_RWCSTREAM_BusSuspended;
 2174               		.loc 4 80 0
 2175 00a0 8530      		cpi r24,lo8(5)
 2176 00a2 01F4      		brne .L174
 2177 00a4 00C0      		rjmp .L180
 2178               	.LVL231:
 2179               	.L178:
 2180               	.LBE349:
 2181               	.LBB350:
  53:LUFA-111009/LUFA/Drivers/USB/Core/AVR8/Template/Template_Endpoint_Control_W.c **** 		else if (Endpoint_IsOUTReceived())
 2182               		.loc 4 53 0
 2183 00a6 81E0      		ldi r24,lo8(1)
 2184 00a8 0895      		ret
 2185               	.L179:
  49:LUFA-111009/LUFA/Drivers/USB/Core/AVR8/Template/Template_Endpoint_Control_W.c **** 		else if (USB_DeviceState_LCL == DEVICE_STATE_Suspended)
 2186               		.loc 4 49 0
 2187 00aa 82E0      		ldi r24,lo8(2)
 2188 00ac 0895      		ret
 2189               	.L180:
  51:LUFA-111009/LUFA/Drivers/USB/Core/AVR8/Template/Template_Endpoint_Control_W.c **** 		else if (Endpoint_IsSETUPReceived())
 2190               		.loc 4 51 0
 2191 00ae 83E0      		ldi r24,lo8(3)
 2192               	.LBE350:
  85:LUFA-111009/LUFA/Drivers/USB/Core/AVR8/Template/Template_Endpoint_Control_W.c **** }
 2193               		.loc 4 85 0
 2194 00b0 0895      		ret
 2195               		.cfi_endproc
 2196               	.LFE93:
 2198               		.section	.text.Endpoint_Write_Control_Stream_BE,"ax",@progbits
 2199               	.global	Endpoint_Write_Control_Stream_BE
 2201               	Endpoint_Write_Control_Stream_BE:
 2202               	.LFB94:
  35:LUFA-111009/LUFA/Drivers/USB/Core/AVR8/Template/Template_Endpoint_Control_W.c **** 	uint8_t* DataStream     = ((uint8_t*)Buffer + TEMPLATE_BUFFER_OFFSET(Length));
 2203               		.loc 4 35 0
 2204               		.cfi_startproc
 2205               	.LVL232:
 2206               	/* prologue: function */
 2207               	/* frame size = 0 */
 2208               	/* stack size = 0 */
 2209               	.L__stack_usage = 0
  36:LUFA-111009/LUFA/Drivers/USB/Core/AVR8/Template/Template_Endpoint_Control_W.c **** 	bool     LastPacketFull = false;
 2210               		.loc 4 36 0
 2211 0000 FB01      		movw r30,r22
 2212 0002 3197      		sbiw r30,1
 2213 0004 E80F      		add r30,r24
 2214 0006 F91F      		adc r31,r25
 2215               	.LVL233:
  39:LUFA-111009/LUFA/Drivers/USB/Core/AVR8/Template/Template_Endpoint_Control_W.c **** 	  Length = USB_ControlRequest.wLength;
 2216               		.loc 4 39 0
 2217 0008 8091 0000 		lds r24,USB_ControlRequest+6
 2218 000c 9091 0000 		lds r25,USB_ControlRequest+6+1
 2219               	.LVL234:
 2220 0010 8617      		cp r24,r22
 2221 0012 9707      		cpc r25,r23
 2222 0014 00F0      		brlo .L203
  41:LUFA-111009/LUFA/Drivers/USB/Core/AVR8/Template/Template_Endpoint_Control_W.c **** 	  Endpoint_ClearIN();
 2223               		.loc 4 41 0
 2224 0016 6115      		cp r22,__zero_reg__
 2225 0018 7105      		cpc r23,__zero_reg__
 2226 001a 01F4      		brne .L189
 2227               	.LBB351:
 2228               	.LBB352:
 516:LUFA-111009/LUFA/Drivers/USB/Core/AVR8/../AVR8/../AVR8/Endpoint_AVR8.h **** 				#else
 2229               		.loc 2 516 0
 2230 001c 8091 E800 		lds r24,232
 2231 0020 8E77      		andi r24,lo8(126)
 2232 0022 8093 E800 		sts 232,r24
 2233 0026 00C0      		rjmp .L189
 2234               	.L203:
 2235               	.LBE352:
 2236               	.LBE351:
 2237 0028 BC01      		movw r22,r24
 2238               	.LVL235:
 2239               	.L189:
 2240 002a 80E0      		ldi r24,0
 2241               	.LVL236:
 2242               	.L195:
  44:LUFA-111009/LUFA/Drivers/USB/Core/AVR8/Template/Template_Endpoint_Control_W.c **** 	{
 2243               		.loc 4 44 0 discriminator 1
 2244 002c 6115      		cp r22,__zero_reg__
 2245 002e 7105      		cpc r23,__zero_reg__
 2246 0030 01F0      		breq .L215
 2247               	.L200:
 2248               	.LBB353:
  46:LUFA-111009/LUFA/Drivers/USB/Core/AVR8/Template/Template_Endpoint_Control_W.c **** 
 2249               		.loc 4 46 0
 2250 0032 9EB3      		in r25,0x1e
 2251               	.LVL237:
  48:LUFA-111009/LUFA/Drivers/USB/Core/AVR8/Template/Template_Endpoint_Control_W.c **** 		  return ENDPOINT_RWCSTREAM_DeviceDisconnected;
 2252               		.loc 4 48 0
 2253 0034 9923      		tst r25
 2254 0036 01F4      		brne .+2
 2255 0038 00C0      		rjmp .L207
  50:LUFA-111009/LUFA/Drivers/USB/Core/AVR8/Template/Template_Endpoint_Control_W.c **** 		  return ENDPOINT_RWCSTREAM_BusSuspended;
 2256               		.loc 4 50 0
 2257 003a 9530      		cpi r25,lo8(5)
 2258 003c 01F4      		brne .+2
 2259 003e 00C0      		rjmp .L208
 2260               	.LBB354:
 2261               	.LBB355:
 491:LUFA-111009/LUFA/Drivers/USB/Core/AVR8/../AVR8/../AVR8/Endpoint_AVR8.h **** 			}
 2262               		.loc 2 491 0
 2263 0040 9091 E800 		lds r25,232
 2264               	.LVL238:
 2265               	.LBE355:
 2266               	.LBE354:
  52:LUFA-111009/LUFA/Drivers/USB/Core/AVR8/Template/Template_Endpoint_Control_W.c **** 		  return ENDPOINT_RWCSTREAM_HostAborted;
 2267               		.loc 4 52 0
 2268 0044 93FD      		sbrc r25,3
 2269 0046 00C0      		rjmp .L206
 2270               	.LBB356:
 2271               	.LBB357:
 479:LUFA-111009/LUFA/Drivers/USB/Core/AVR8/../AVR8/../AVR8/Endpoint_AVR8.h **** 			}
 2272               		.loc 2 479 0
 2273 0048 9091 E800 		lds r25,232
 2274               	.LBE357:
 2275               	.LBE356:
  54:LUFA-111009/LUFA/Drivers/USB/Core/AVR8/Template/Template_Endpoint_Control_W.c **** 		  break;
 2276               		.loc 4 54 0
 2277 004c 92FF      		sbrs r25,2
 2278 004e 00C0      		rjmp .L192
 2279               	.LVL239:
 2280               	.L202:
 2281               	.LBE353:
 2282               	.LBB367:
 2283               	.LBB368:
 479:LUFA-111009/LUFA/Drivers/USB/Core/AVR8/../AVR8/../AVR8/Endpoint_AVR8.h **** 			}
 2284               		.loc 2 479 0 discriminator 1
 2285 0050 8091 E800 		lds r24,232
 2286               	.LBE368:
 2287               	.LBE367:
  74:LUFA-111009/LUFA/Drivers/USB/Core/AVR8/Template/Template_Endpoint_Control_W.c **** 	{
 2288               		.loc 4 74 0 discriminator 1
 2289 0054 82FF      		sbrs r24,2
 2290 0056 00C0      		rjmp .L193
  84:LUFA-111009/LUFA/Drivers/USB/Core/AVR8/Template/Template_Endpoint_Control_W.c **** }
 2291               		.loc 4 84 0
 2292 0058 80E0      		ldi r24,0
 2293 005a 0895      		ret
 2294               	.LVL240:
 2295               	.L192:
 2296               	.LBB369:
 2297               	.LBB358:
 2298               	.LBB359:
 467:LUFA-111009/LUFA/Drivers/USB/Core/AVR8/../AVR8/../AVR8/Endpoint_AVR8.h **** 			}
 2299               		.loc 2 467 0
 2300 005c 9091 E800 		lds r25,232
 2301               	.LBE359:
 2302               	.LBE358:
  57:LUFA-111009/LUFA/Drivers/USB/Core/AVR8/Template/Template_Endpoint_Control_W.c **** 		{
 2303               		.loc 4 57 0
 2304 0060 90FF      		sbrs r25,0
 2305 0062 00C0      		rjmp .L195
 2306               	.LBB360:
 2307               	.LBB361:
 2308               	.LBB362:
 295:LUFA-111009/LUFA/Drivers/USB/Core/AVR8/../AVR8/../AVR8/Endpoint_AVR8.h **** 				#elif defined(USB_SERIES_2_AVR)
 2309               		.loc 2 295 0
 2310 0064 8091 F300 		lds r24,243
 2311               	.LVL241:
 2312 0068 2091 F200 		lds r18,242
 2313 006c 30E0      		ldi r19,0
 2314 006e 382B      		or r19,r24
 2315               	.L196:
 2316               	.LVL242:
 2317               	.LBE362:
 2318               	.LBE361:
  61:LUFA-111009/LUFA/Drivers/USB/Core/AVR8/Template/Template_Endpoint_Control_W.c **** 			{
 2319               		.loc 4 61 0 discriminator 1
 2320 0070 6115      		cp r22,__zero_reg__
 2321 0072 7105      		cpc r23,__zero_reg__
 2322 0074 01F0      		breq .L197
  61:LUFA-111009/LUFA/Drivers/USB/Core/AVR8/Template/Template_Endpoint_Control_W.c **** 			{
 2323               		.loc 4 61 0 is_stmt 0 discriminator 2
 2324 0076 2830      		cpi r18,8
 2325 0078 3105      		cpc r19,__zero_reg__
 2326 007a 00F4      		brsh .L197
  63:LUFA-111009/LUFA/Drivers/USB/Core/AVR8/Template/Template_Endpoint_Control_W.c **** 				TEMPLATE_BUFFER_MOVE(DataStream, 1);
 2327               		.loc 4 63 0 is_stmt 1
 2328 007c 8081      		ld r24,Z
 2329               	.LVL243:
 2330               	.LBB363:
 2331               	.LBB364:
 624:LUFA-111009/LUFA/Drivers/USB/Core/AVR8/../AVR8/../AVR8/Endpoint_AVR8.h **** 			}
 2332               		.loc 2 624 0
 2333 007e 8093 F100 		sts 241,r24
 2334               	.LBE364:
 2335               	.LBE363:
  64:LUFA-111009/LUFA/Drivers/USB/Core/AVR8/Template/Template_Endpoint_Control_W.c **** 				Length--;
 2336               		.loc 4 64 0
 2337 0082 3197      		sbiw r30,1
 2338               	.LVL244:
  65:LUFA-111009/LUFA/Drivers/USB/Core/AVR8/Template/Template_Endpoint_Control_W.c **** 				BytesInEndpoint++;
 2339               		.loc 4 65 0
 2340 0084 6150      		subi r22,1
 2341 0086 7109      		sbc r23,__zero_reg__
 2342               	.LVL245:
  66:LUFA-111009/LUFA/Drivers/USB/Core/AVR8/Template/Template_Endpoint_Control_W.c **** 			}
 2343               		.loc 4 66 0
 2344 0088 2F5F      		subi r18,-1
 2345 008a 3F4F      		sbci r19,-1
 2346               	.LVL246:
 2347 008c 00C0      		rjmp .L196
 2348               	.LVL247:
 2349               	.L197:
  69:LUFA-111009/LUFA/Drivers/USB/Core/AVR8/Template/Template_Endpoint_Control_W.c **** 			Endpoint_ClearIN();
 2350               		.loc 4 69 0
 2351 008e 81E0      		ldi r24,lo8(1)
 2352 0090 2830      		cpi r18,8
 2353 0092 3105      		cpc r19,__zero_reg__
 2354 0094 01F0      		breq .L199
 2355 0096 80E0      		ldi r24,0
 2356               	.L199:
 2357               	.LVL248:
 2358               	.LBB365:
 2359               	.LBB366:
 516:LUFA-111009/LUFA/Drivers/USB/Core/AVR8/../AVR8/../AVR8/Endpoint_AVR8.h **** 				#else
 2360               		.loc 2 516 0
 2361 0098 9091 E800 		lds r25,232
 2362 009c 9E77      		andi r25,lo8(126)
 2363 009e 9093 E800 		sts 232,r25
 2364 00a2 00C0      		rjmp .L195
 2365               	.LVL249:
 2366               	.L215:
 2367               	.LBE366:
 2368               	.LBE365:
 2369               	.LBE360:
 2370               	.LBE369:
  44:LUFA-111009/LUFA/Drivers/USB/Core/AVR8/Template/Template_Endpoint_Control_W.c **** 	{
 2371               		.loc 4 44 0 discriminator 2
 2372 00a4 8111      		cpse r24,__zero_reg__
 2373 00a6 00C0      		rjmp .L200
 2374 00a8 00C0      		rjmp .L202
 2375               	.LVL250:
 2376               	.L193:
 2377               	.LBB370:
  76:LUFA-111009/LUFA/Drivers/USB/Core/AVR8/Template/Template_Endpoint_Control_W.c **** 
 2378               		.loc 4 76 0
 2379 00aa 8EB3      		in r24,0x1e
 2380               	.LVL251:
  78:LUFA-111009/LUFA/Drivers/USB/Core/AVR8/Template/Template_Endpoint_Control_W.c **** 		  return ENDPOINT_RWCSTREAM_DeviceDisconnected;
 2381               		.loc 4 78 0
 2382 00ac 8823      		tst r24
 2383 00ae 01F0      		breq .L207
  80:LUFA-111009/LUFA/Drivers/USB/Core/AVR8/Template/Template_Endpoint_Control_W.c **** 		  return ENDPOINT_RWCSTREAM_BusSuspended;
 2384               		.loc 4 80 0
 2385 00b0 8530      		cpi r24,lo8(5)
 2386 00b2 01F4      		brne .L202
 2387 00b4 00C0      		rjmp .L208
 2388               	.LVL252:
 2389               	.L206:
 2390               	.LBE370:
 2391               	.LBB371:
  53:LUFA-111009/LUFA/Drivers/USB/Core/AVR8/Template/Template_Endpoint_Control_W.c **** 		else if (Endpoint_IsOUTReceived())
 2392               		.loc 4 53 0
 2393 00b6 81E0      		ldi r24,lo8(1)
 2394               	.LVL253:
 2395 00b8 0895      		ret
 2396               	.L207:
  49:LUFA-111009/LUFA/Drivers/USB/Core/AVR8/Template/Template_Endpoint_Control_W.c **** 		else if (USB_DeviceState_LCL == DEVICE_STATE_Suspended)
 2397               		.loc 4 49 0
 2398 00ba 82E0      		ldi r24,lo8(2)
 2399 00bc 0895      		ret
 2400               	.L208:
  51:LUFA-111009/LUFA/Drivers/USB/Core/AVR8/Template/Template_Endpoint_Control_W.c **** 		else if (Endpoint_IsSETUPReceived())
 2401               		.loc 4 51 0
 2402 00be 83E0      		ldi r24,lo8(3)
 2403               	.LBE371:
 2404               		.loc 4 85 0
 2405 00c0 0895      		ret
 2406               		.cfi_endproc
 2407               	.LFE94:
 2409               		.section	.text.Endpoint_Read_Control_Stream_LE,"ax",@progbits
 2410               	.global	Endpoint_Read_Control_Stream_LE
 2412               	Endpoint_Read_Control_Stream_LE:
 2413               	.LFB95:
 2414               		.file 5 "LUFA-111009/LUFA/Drivers/USB/Core/AVR8/Template/Template_Endpoint_Control_R.c"
   1:LUFA-111009/LUFA/Drivers/USB/Core/AVR8/Template/Template_Endpoint_Control_R.c **** /*
   2:LUFA-111009/LUFA/Drivers/USB/Core/AVR8/Template/Template_Endpoint_Control_R.c ****              LUFA Library
   3:LUFA-111009/LUFA/Drivers/USB/Core/AVR8/Template/Template_Endpoint_Control_R.c ****      Copyright (C) Dean Camera, 2011.
   4:LUFA-111009/LUFA/Drivers/USB/Core/AVR8/Template/Template_Endpoint_Control_R.c **** 
   5:LUFA-111009/LUFA/Drivers/USB/Core/AVR8/Template/Template_Endpoint_Control_R.c ****   dean [at] fourwalledcubicle [dot] com
   6:LUFA-111009/LUFA/Drivers/USB/Core/AVR8/Template/Template_Endpoint_Control_R.c ****            www.lufa-lib.org
   7:LUFA-111009/LUFA/Drivers/USB/Core/AVR8/Template/Template_Endpoint_Control_R.c **** */
   8:LUFA-111009/LUFA/Drivers/USB/Core/AVR8/Template/Template_Endpoint_Control_R.c **** 
   9:LUFA-111009/LUFA/Drivers/USB/Core/AVR8/Template/Template_Endpoint_Control_R.c **** /*
  10:LUFA-111009/LUFA/Drivers/USB/Core/AVR8/Template/Template_Endpoint_Control_R.c ****   Copyright 2011  Dean Camera (dean [at] fourwalledcubicle [dot] com)
  11:LUFA-111009/LUFA/Drivers/USB/Core/AVR8/Template/Template_Endpoint_Control_R.c **** 
  12:LUFA-111009/LUFA/Drivers/USB/Core/AVR8/Template/Template_Endpoint_Control_R.c ****   Permission to use, copy, modify, distribute, and sell this
  13:LUFA-111009/LUFA/Drivers/USB/Core/AVR8/Template/Template_Endpoint_Control_R.c ****   software and its documentation for any purpose is hereby granted
  14:LUFA-111009/LUFA/Drivers/USB/Core/AVR8/Template/Template_Endpoint_Control_R.c ****   without fee, provided that the above copyright notice appear in
  15:LUFA-111009/LUFA/Drivers/USB/Core/AVR8/Template/Template_Endpoint_Control_R.c ****   all copies and that both that the copyright notice and this
  16:LUFA-111009/LUFA/Drivers/USB/Core/AVR8/Template/Template_Endpoint_Control_R.c ****   permission notice and warranty disclaimer appear in supporting
  17:LUFA-111009/LUFA/Drivers/USB/Core/AVR8/Template/Template_Endpoint_Control_R.c ****   documentation, and that the name of the author not be used in
  18:LUFA-111009/LUFA/Drivers/USB/Core/AVR8/Template/Template_Endpoint_Control_R.c ****   advertising or publicity pertaining to distribution of the
  19:LUFA-111009/LUFA/Drivers/USB/Core/AVR8/Template/Template_Endpoint_Control_R.c ****   software without specific, written prior permission.
  20:LUFA-111009/LUFA/Drivers/USB/Core/AVR8/Template/Template_Endpoint_Control_R.c **** 
  21:LUFA-111009/LUFA/Drivers/USB/Core/AVR8/Template/Template_Endpoint_Control_R.c ****   The author disclaim all warranties with regard to this
  22:LUFA-111009/LUFA/Drivers/USB/Core/AVR8/Template/Template_Endpoint_Control_R.c ****   software, including all implied warranties of merchantability
  23:LUFA-111009/LUFA/Drivers/USB/Core/AVR8/Template/Template_Endpoint_Control_R.c ****   and fitness.  In no event shall the author be liable for any
  24:LUFA-111009/LUFA/Drivers/USB/Core/AVR8/Template/Template_Endpoint_Control_R.c ****   special, indirect or consequential damages or any damages
  25:LUFA-111009/LUFA/Drivers/USB/Core/AVR8/Template/Template_Endpoint_Control_R.c ****   whatsoever resulting from loss of use, data or profits, whether
  26:LUFA-111009/LUFA/Drivers/USB/Core/AVR8/Template/Template_Endpoint_Control_R.c ****   in an action of contract, negligence or other tortious action,
  27:LUFA-111009/LUFA/Drivers/USB/Core/AVR8/Template/Template_Endpoint_Control_R.c ****   arising out of or in connection with the use or performance of
  28:LUFA-111009/LUFA/Drivers/USB/Core/AVR8/Template/Template_Endpoint_Control_R.c ****   this software.
  29:LUFA-111009/LUFA/Drivers/USB/Core/AVR8/Template/Template_Endpoint_Control_R.c **** */
  30:LUFA-111009/LUFA/Drivers/USB/Core/AVR8/Template/Template_Endpoint_Control_R.c **** 
  31:LUFA-111009/LUFA/Drivers/USB/Core/AVR8/Template/Template_Endpoint_Control_R.c **** #if defined(TEMPLATE_FUNC_NAME)
  32:LUFA-111009/LUFA/Drivers/USB/Core/AVR8/Template/Template_Endpoint_Control_R.c **** 
  33:LUFA-111009/LUFA/Drivers/USB/Core/AVR8/Template/Template_Endpoint_Control_R.c **** uint8_t TEMPLATE_FUNC_NAME (void* const Buffer,
  34:LUFA-111009/LUFA/Drivers/USB/Core/AVR8/Template/Template_Endpoint_Control_R.c ****                             uint16_t Length)
  35:LUFA-111009/LUFA/Drivers/USB/Core/AVR8/Template/Template_Endpoint_Control_R.c **** {
 2415               		.loc 5 35 0
 2416               		.cfi_startproc
 2417               	.LVL254:
 2418               	/* prologue: function */
 2419               	/* frame size = 0 */
 2420               	/* stack size = 0 */
 2421               	.L__stack_usage = 0
  36:LUFA-111009/LUFA/Drivers/USB/Core/AVR8/Template/Template_Endpoint_Control_R.c **** 	uint8_t* DataStream = ((uint8_t*)Buffer + TEMPLATE_BUFFER_OFFSET(Length));
  37:LUFA-111009/LUFA/Drivers/USB/Core/AVR8/Template/Template_Endpoint_Control_R.c **** 
  38:LUFA-111009/LUFA/Drivers/USB/Core/AVR8/Template/Template_Endpoint_Control_R.c **** 	if (!(Length))
 2422               		.loc 5 38 0
 2423 0000 6115      		cp r22,__zero_reg__
 2424 0002 7105      		cpc r23,__zero_reg__
 2425 0004 01F4      		brne .L218
 2426               	.LVL255:
 2427               	.L223:
 2428               	.LBB372:
 2429               	.LBB373:
 2430               	.LBB374:
 531:LUFA-111009/LUFA/Drivers/USB/Core/AVR8/../AVR8/../AVR8/Endpoint_AVR8.h **** 				#else
 2431               		.loc 2 531 0
 2432 0006 2091 E800 		lds r18,232
 2433 000a 2B77      		andi r18,lo8(123)
 2434 000c 2093 E800 		sts 232,r18
 2435               	.L218:
 2436               	.LVL256:
 2437               	.LBE374:
 2438               	.LBE373:
 2439               	.LBE372:
  39:LUFA-111009/LUFA/Drivers/USB/Core/AVR8/Template/Template_Endpoint_Control_R.c **** 	  Endpoint_ClearOUT();
  40:LUFA-111009/LUFA/Drivers/USB/Core/AVR8/Template/Template_Endpoint_Control_R.c **** 
  41:LUFA-111009/LUFA/Drivers/USB/Core/AVR8/Template/Template_Endpoint_Control_R.c **** 	while (Length)
 2440               		.loc 5 41 0 discriminator 1
 2441 0010 6115      		cp r22,__zero_reg__
 2442 0012 7105      		cpc r23,__zero_reg__
 2443 0014 01F0      		breq .L226
 2444               	.LVL257:
 2445               	.L221:
 2446               	.LBB383:
  42:LUFA-111009/LUFA/Drivers/USB/Core/AVR8/Template/Template_Endpoint_Control_R.c **** 	{
  43:LUFA-111009/LUFA/Drivers/USB/Core/AVR8/Template/Template_Endpoint_Control_R.c **** 		uint8_t USB_DeviceState_LCL = USB_DeviceState;
 2447               		.loc 5 43 0
 2448 0016 2EB3      		in r18,0x1e
 2449               	.LVL258:
  44:LUFA-111009/LUFA/Drivers/USB/Core/AVR8/Template/Template_Endpoint_Control_R.c **** 
  45:LUFA-111009/LUFA/Drivers/USB/Core/AVR8/Template/Template_Endpoint_Control_R.c **** 		if (USB_DeviceState_LCL == DEVICE_STATE_Unattached)
 2450               		.loc 5 45 0
 2451 0018 2223      		tst r18
 2452 001a 01F0      		breq .L231
  46:LUFA-111009/LUFA/Drivers/USB/Core/AVR8/Template/Template_Endpoint_Control_R.c **** 		  return ENDPOINT_RWCSTREAM_DeviceDisconnected;
  47:LUFA-111009/LUFA/Drivers/USB/Core/AVR8/Template/Template_Endpoint_Control_R.c **** 		else if (USB_DeviceState_LCL == DEVICE_STATE_Suspended)
 2453               		.loc 5 47 0
 2454 001c 2530      		cpi r18,lo8(5)
 2455 001e 01F0      		breq .L232
 2456               	.LBB375:
 2457               	.LBB376:
 491:LUFA-111009/LUFA/Drivers/USB/Core/AVR8/../AVR8/../AVR8/Endpoint_AVR8.h **** 			}
 2458               		.loc 2 491 0
 2459 0020 2091 E800 		lds r18,232
 2460               	.LVL259:
 2461               	.LBE376:
 2462               	.LBE375:
  48:LUFA-111009/LUFA/Drivers/USB/Core/AVR8/Template/Template_Endpoint_Control_R.c **** 		  return ENDPOINT_RWCSTREAM_BusSuspended;
  49:LUFA-111009/LUFA/Drivers/USB/Core/AVR8/Template/Template_Endpoint_Control_R.c **** 		else if (Endpoint_IsSETUPReceived())
 2463               		.loc 5 49 0
 2464 0024 23FD      		sbrc r18,3
 2465 0026 00C0      		rjmp .L229
 2466               	.LBB377:
 2467               	.LBB378:
 479:LUFA-111009/LUFA/Drivers/USB/Core/AVR8/../AVR8/../AVR8/Endpoint_AVR8.h **** 			}
 2468               		.loc 2 479 0
 2469 0028 2091 E800 		lds r18,232
 2470               	.LBE378:
 2471               	.LBE377:
  50:LUFA-111009/LUFA/Drivers/USB/Core/AVR8/Template/Template_Endpoint_Control_R.c **** 		  return ENDPOINT_RWCSTREAM_HostAborted;
  51:LUFA-111009/LUFA/Drivers/USB/Core/AVR8/Template/Template_Endpoint_Control_R.c **** 
  52:LUFA-111009/LUFA/Drivers/USB/Core/AVR8/Template/Template_Endpoint_Control_R.c **** 		if (Endpoint_IsOUTReceived())
 2472               		.loc 5 52 0
 2473 002c 22FF      		sbrs r18,2
 2474 002e 00C0      		rjmp .L221
 2475 0030 FC01      		movw r30,r24
 2476               	.LVL260:
 2477               	.L222:
 2478 0032 CF01      		movw r24,r30
 2479               	.LVL261:
 2480               	.LBB379:
 2481               	.LBB380:
 295:LUFA-111009/LUFA/Drivers/USB/Core/AVR8/../AVR8/../AVR8/Endpoint_AVR8.h **** 				#elif defined(USB_SERIES_2_AVR)
 2482               		.loc 2 295 0
 2483 0034 4091 F300 		lds r20,243
 2484 0038 2091 F200 		lds r18,242
 2485 003c 30E0      		ldi r19,0
 2486 003e 342B      		or r19,r20
 2487               	.LBE380:
 2488               	.LBE379:
  53:LUFA-111009/LUFA/Drivers/USB/Core/AVR8/Template/Template_Endpoint_Control_R.c **** 		{
  54:LUFA-111009/LUFA/Drivers/USB/Core/AVR8/Template/Template_Endpoint_Control_R.c **** 			while (Length && Endpoint_BytesInEndpoint())
 2489               		.loc 5 54 0
 2490 0040 232B      		or r18,r19
 2491 0042 01F0      		breq .L223
 2492               	.LBB381:
 2493               	.LBB382:
 612:LUFA-111009/LUFA/Drivers/USB/Core/AVR8/../AVR8/../AVR8/Endpoint_AVR8.h **** 			}
 2494               		.loc 2 612 0
 2495 0044 8091 F100 		lds r24,241
 2496               	.LVL262:
 2497               	.LBE382:
 2498               	.LBE381:
  55:LUFA-111009/LUFA/Drivers/USB/Core/AVR8/Template/Template_Endpoint_Control_R.c **** 			{
  56:LUFA-111009/LUFA/Drivers/USB/Core/AVR8/Template/Template_Endpoint_Control_R.c **** 				TEMPLATE_TRANSFER_BYTE(DataStream);
 2499               		.loc 5 56 0
 2500 0048 8193      		st Z+,r24
 2501               	.LVL263:
  57:LUFA-111009/LUFA/Drivers/USB/Core/AVR8/Template/Template_Endpoint_Control_R.c **** 				TEMPLATE_BUFFER_MOVE(DataStream, 1);
 2502               		.loc 5 57 0
 2503 004a CF01      		movw r24,r30
 2504               	.LVL264:
  58:LUFA-111009/LUFA/Drivers/USB/Core/AVR8/Template/Template_Endpoint_Control_R.c **** 				Length--;
 2505               		.loc 5 58 0
 2506 004c 6150      		subi r22,1
 2507 004e 7109      		sbc r23,__zero_reg__
 2508               	.LVL265:
  54:LUFA-111009/LUFA/Drivers/USB/Core/AVR8/Template/Template_Endpoint_Control_R.c **** 			{
 2509               		.loc 5 54 0
 2510 0050 6115      		cp r22,__zero_reg__
 2511 0052 7105      		cpc r23,__zero_reg__
 2512 0054 01F4      		brne .L222
 2513 0056 00C0      		rjmp .L223
 2514               	.LVL266:
 2515               	.L236:
 2516               	.LBE383:
 2517               	.LBB384:
  59:LUFA-111009/LUFA/Drivers/USB/Core/AVR8/Template/Template_Endpoint_Control_R.c **** 			}
  60:LUFA-111009/LUFA/Drivers/USB/Core/AVR8/Template/Template_Endpoint_Control_R.c **** 
  61:LUFA-111009/LUFA/Drivers/USB/Core/AVR8/Template/Template_Endpoint_Control_R.c **** 			Endpoint_ClearOUT();
  62:LUFA-111009/LUFA/Drivers/USB/Core/AVR8/Template/Template_Endpoint_Control_R.c **** 		}
  63:LUFA-111009/LUFA/Drivers/USB/Core/AVR8/Template/Template_Endpoint_Control_R.c **** 	}
  64:LUFA-111009/LUFA/Drivers/USB/Core/AVR8/Template/Template_Endpoint_Control_R.c **** 
  65:LUFA-111009/LUFA/Drivers/USB/Core/AVR8/Template/Template_Endpoint_Control_R.c **** 	while (!(Endpoint_IsINReady()))
  66:LUFA-111009/LUFA/Drivers/USB/Core/AVR8/Template/Template_Endpoint_Control_R.c **** 	{
  67:LUFA-111009/LUFA/Drivers/USB/Core/AVR8/Template/Template_Endpoint_Control_R.c **** 		uint8_t USB_DeviceState_LCL = USB_DeviceState;
 2518               		.loc 5 67 0
 2519 0058 8EB3      		in r24,0x1e
 2520               	.LVL267:
  68:LUFA-111009/LUFA/Drivers/USB/Core/AVR8/Template/Template_Endpoint_Control_R.c **** 
  69:LUFA-111009/LUFA/Drivers/USB/Core/AVR8/Template/Template_Endpoint_Control_R.c **** 		if (USB_DeviceState_LCL == DEVICE_STATE_Unattached)
 2521               		.loc 5 69 0
 2522 005a 8823      		tst r24
 2523 005c 01F0      		breq .L231
  70:LUFA-111009/LUFA/Drivers/USB/Core/AVR8/Template/Template_Endpoint_Control_R.c **** 		  return ENDPOINT_RWCSTREAM_DeviceDisconnected;
  71:LUFA-111009/LUFA/Drivers/USB/Core/AVR8/Template/Template_Endpoint_Control_R.c **** 		else if (USB_DeviceState_LCL == DEVICE_STATE_Suspended)
 2524               		.loc 5 71 0
 2525 005e 8530      		cpi r24,lo8(5)
 2526 0060 01F0      		breq .L232
 2527               	.LVL268:
 2528               	.L226:
 2529               	.LBE384:
 2530               	.LBB385:
 2531               	.LBB386:
 467:LUFA-111009/LUFA/Drivers/USB/Core/AVR8/../AVR8/../AVR8/Endpoint_AVR8.h **** 			}
 2532               		.loc 2 467 0
 2533 0062 8091 E800 		lds r24,232
 2534               	.LBE386:
 2535               	.LBE385:
  65:LUFA-111009/LUFA/Drivers/USB/Core/AVR8/Template/Template_Endpoint_Control_R.c **** 	{
 2536               		.loc 5 65 0
 2537 0066 80FF      		sbrs r24,0
 2538 0068 00C0      		rjmp .L236
 2539 006a 00C0      		rjmp .L230
 2540               	.LVL269:
 2541               	.L229:
 2542               	.LBB387:
  50:LUFA-111009/LUFA/Drivers/USB/Core/AVR8/Template/Template_Endpoint_Control_R.c **** 
 2543               		.loc 5 50 0
 2544 006c 81E0      		ldi r24,lo8(1)
 2545               	.LVL270:
 2546 006e 0895      		ret
 2547               	.L230:
 2548               	.LBE387:
  72:LUFA-111009/LUFA/Drivers/USB/Core/AVR8/Template/Template_Endpoint_Control_R.c **** 		  return ENDPOINT_RWCSTREAM_BusSuspended;
  73:LUFA-111009/LUFA/Drivers/USB/Core/AVR8/Template/Template_Endpoint_Control_R.c **** 	}
  74:LUFA-111009/LUFA/Drivers/USB/Core/AVR8/Template/Template_Endpoint_Control_R.c **** 
  75:LUFA-111009/LUFA/Drivers/USB/Core/AVR8/Template/Template_Endpoint_Control_R.c **** 	return ENDPOINT_RWCSTREAM_NoError;
 2549               		.loc 5 75 0
 2550 0070 80E0      		ldi r24,0
 2551 0072 0895      		ret
 2552               	.L231:
 2553               	.LBB388:
  46:LUFA-111009/LUFA/Drivers/USB/Core/AVR8/Template/Template_Endpoint_Control_R.c **** 		else if (USB_DeviceState_LCL == DEVICE_STATE_Suspended)
 2554               		.loc 5 46 0
 2555 0074 82E0      		ldi r24,lo8(2)
 2556 0076 0895      		ret
 2557               	.L232:
  48:LUFA-111009/LUFA/Drivers/USB/Core/AVR8/Template/Template_Endpoint_Control_R.c **** 		else if (Endpoint_IsSETUPReceived())
 2558               		.loc 5 48 0
 2559 0078 83E0      		ldi r24,lo8(3)
 2560               	.LBE388:
  76:LUFA-111009/LUFA/Drivers/USB/Core/AVR8/Template/Template_Endpoint_Control_R.c **** }
 2561               		.loc 5 76 0
 2562 007a 0895      		ret
 2563               		.cfi_endproc
 2564               	.LFE95:
 2566               		.section	.text.Endpoint_Read_Control_Stream_BE,"ax",@progbits
 2567               	.global	Endpoint_Read_Control_Stream_BE
 2569               	Endpoint_Read_Control_Stream_BE:
 2570               	.LFB96:
  35:LUFA-111009/LUFA/Drivers/USB/Core/AVR8/Template/Template_Endpoint_Control_R.c **** 	uint8_t* DataStream = ((uint8_t*)Buffer + TEMPLATE_BUFFER_OFFSET(Length));
 2571               		.loc 5 35 0
 2572               		.cfi_startproc
 2573               	.LVL271:
 2574               	/* prologue: function */
 2575               	/* frame size = 0 */
 2576               	/* stack size = 0 */
 2577               	.L__stack_usage = 0
  36:LUFA-111009/LUFA/Drivers/USB/Core/AVR8/Template/Template_Endpoint_Control_R.c **** 
 2578               		.loc 5 36 0
 2579 0000 FB01      		movw r30,r22
 2580 0002 3197      		sbiw r30,1
 2581 0004 E80F      		add r30,r24
 2582 0006 F91F      		adc r31,r25
 2583               	.LVL272:
  38:LUFA-111009/LUFA/Drivers/USB/Core/AVR8/Template/Template_Endpoint_Control_R.c **** 	  Endpoint_ClearOUT();
 2584               		.loc 5 38 0
 2585 0008 6115      		cp r22,__zero_reg__
 2586 000a 7105      		cpc r23,__zero_reg__
 2587 000c 01F4      		brne .L239
 2588               	.LVL273:
 2589               	.L244:
 2590               	.LBB389:
 2591               	.LBB390:
 2592               	.LBB391:
 531:LUFA-111009/LUFA/Drivers/USB/Core/AVR8/../AVR8/../AVR8/Endpoint_AVR8.h **** 				#else
 2593               		.loc 2 531 0
 2594 000e 8091 E800 		lds r24,232
 2595 0012 8B77      		andi r24,lo8(123)
 2596 0014 8093 E800 		sts 232,r24
 2597               	.L239:
 2598               	.LBE391:
 2599               	.LBE390:
 2600               	.LBE389:
  41:LUFA-111009/LUFA/Drivers/USB/Core/AVR8/Template/Template_Endpoint_Control_R.c **** 	{
 2601               		.loc 5 41 0 discriminator 1
 2602 0018 6115      		cp r22,__zero_reg__
 2603 001a 7105      		cpc r23,__zero_reg__
 2604 001c 01F0      		breq .L247
 2605               	.L242:
 2606               	.LBB400:
  43:LUFA-111009/LUFA/Drivers/USB/Core/AVR8/Template/Template_Endpoint_Control_R.c **** 
 2607               		.loc 5 43 0
 2608 001e 8EB3      		in r24,0x1e
 2609               	.LVL274:
  45:LUFA-111009/LUFA/Drivers/USB/Core/AVR8/Template/Template_Endpoint_Control_R.c **** 		  return ENDPOINT_RWCSTREAM_DeviceDisconnected;
 2610               		.loc 5 45 0
 2611 0020 8823      		tst r24
 2612 0022 01F0      		breq .L252
  47:LUFA-111009/LUFA/Drivers/USB/Core/AVR8/Template/Template_Endpoint_Control_R.c **** 		  return ENDPOINT_RWCSTREAM_BusSuspended;
 2613               		.loc 5 47 0
 2614 0024 8530      		cpi r24,lo8(5)
 2615 0026 01F0      		breq .L253
 2616               	.LBB392:
 2617               	.LBB393:
 491:LUFA-111009/LUFA/Drivers/USB/Core/AVR8/../AVR8/../AVR8/Endpoint_AVR8.h **** 			}
 2618               		.loc 2 491 0
 2619 0028 8091 E800 		lds r24,232
 2620               	.LVL275:
 2621               	.LBE393:
 2622               	.LBE392:
  49:LUFA-111009/LUFA/Drivers/USB/Core/AVR8/Template/Template_Endpoint_Control_R.c **** 		  return ENDPOINT_RWCSTREAM_HostAborted;
 2623               		.loc 5 49 0
 2624 002c 83FD      		sbrc r24,3
 2625 002e 00C0      		rjmp .L250
 2626               	.LBB394:
 2627               	.LBB395:
 479:LUFA-111009/LUFA/Drivers/USB/Core/AVR8/../AVR8/../AVR8/Endpoint_AVR8.h **** 			}
 2628               		.loc 2 479 0
 2629 0030 8091 E800 		lds r24,232
 2630               	.LBE395:
 2631               	.LBE394:
  52:LUFA-111009/LUFA/Drivers/USB/Core/AVR8/Template/Template_Endpoint_Control_R.c **** 		{
 2632               		.loc 5 52 0
 2633 0034 82FF      		sbrs r24,2
 2634 0036 00C0      		rjmp .L242
 2635               	.L243:
 2636               	.LBB396:
 2637               	.LBB397:
 295:LUFA-111009/LUFA/Drivers/USB/Core/AVR8/../AVR8/../AVR8/Endpoint_AVR8.h **** 				#elif defined(USB_SERIES_2_AVR)
 2638               		.loc 2 295 0
 2639 0038 2091 F300 		lds r18,243
 2640 003c 8091 F200 		lds r24,242
 2641 0040 90E0      		ldi r25,0
 2642 0042 922B      		or r25,r18
 2643               	.LBE397:
 2644               	.LBE396:
  54:LUFA-111009/LUFA/Drivers/USB/Core/AVR8/Template/Template_Endpoint_Control_R.c **** 			{
 2645               		.loc 5 54 0
 2646 0044 892B      		or r24,r25
 2647 0046 01F0      		breq .L244
 2648               	.LBB398:
 2649               	.LBB399:
 612:LUFA-111009/LUFA/Drivers/USB/Core/AVR8/../AVR8/../AVR8/Endpoint_AVR8.h **** 			}
 2650               		.loc 2 612 0
 2651 0048 8091 F100 		lds r24,241
 2652               	.LBE399:
 2653               	.LBE398:
  56:LUFA-111009/LUFA/Drivers/USB/Core/AVR8/Template/Template_Endpoint_Control_R.c **** 				TEMPLATE_BUFFER_MOVE(DataStream, 1);
 2654               		.loc 5 56 0
 2655 004c 8083      		st Z,r24
  57:LUFA-111009/LUFA/Drivers/USB/Core/AVR8/Template/Template_Endpoint_Control_R.c **** 				Length--;
 2656               		.loc 5 57 0
 2657 004e 3197      		sbiw r30,1
 2658               	.LVL276:
  58:LUFA-111009/LUFA/Drivers/USB/Core/AVR8/Template/Template_Endpoint_Control_R.c **** 			}
 2659               		.loc 5 58 0
 2660 0050 6150      		subi r22,1
 2661 0052 7109      		sbc r23,__zero_reg__
 2662               	.LVL277:
  54:LUFA-111009/LUFA/Drivers/USB/Core/AVR8/Template/Template_Endpoint_Control_R.c **** 			{
 2663               		.loc 5 54 0
 2664 0054 6115      		cp r22,__zero_reg__
 2665 0056 7105      		cpc r23,__zero_reg__
 2666 0058 01F4      		brne .L243
 2667 005a 00C0      		rjmp .L244
 2668               	.L257:
 2669               	.LBE400:
 2670               	.LBB401:
  67:LUFA-111009/LUFA/Drivers/USB/Core/AVR8/Template/Template_Endpoint_Control_R.c **** 
 2671               		.loc 5 67 0
 2672 005c 8EB3      		in r24,0x1e
 2673               	.LVL278:
  69:LUFA-111009/LUFA/Drivers/USB/Core/AVR8/Template/Template_Endpoint_Control_R.c **** 		  return ENDPOINT_RWCSTREAM_DeviceDisconnected;
 2674               		.loc 5 69 0
 2675 005e 8823      		tst r24
 2676 0060 01F0      		breq .L252
  71:LUFA-111009/LUFA/Drivers/USB/Core/AVR8/Template/Template_Endpoint_Control_R.c **** 		  return ENDPOINT_RWCSTREAM_BusSuspended;
 2677               		.loc 5 71 0
 2678 0062 8530      		cpi r24,lo8(5)
 2679 0064 01F0      		breq .L253
 2680               	.LVL279:
 2681               	.L247:
 2682               	.LBE401:
 2683               	.LBB402:
 2684               	.LBB403:
 467:LUFA-111009/LUFA/Drivers/USB/Core/AVR8/../AVR8/../AVR8/Endpoint_AVR8.h **** 			}
 2685               		.loc 2 467 0
 2686 0066 8091 E800 		lds r24,232
 2687               	.LBE403:
 2688               	.LBE402:
  65:LUFA-111009/LUFA/Drivers/USB/Core/AVR8/Template/Template_Endpoint_Control_R.c **** 	{
 2689               		.loc 5 65 0
 2690 006a 80FF      		sbrs r24,0
 2691 006c 00C0      		rjmp .L257
 2692 006e 00C0      		rjmp .L251
 2693               	.L250:
 2694               	.LBB404:
  50:LUFA-111009/LUFA/Drivers/USB/Core/AVR8/Template/Template_Endpoint_Control_R.c **** 
 2695               		.loc 5 50 0
 2696 0070 81E0      		ldi r24,lo8(1)
 2697 0072 0895      		ret
 2698               	.L251:
 2699               	.LBE404:
  75:LUFA-111009/LUFA/Drivers/USB/Core/AVR8/Template/Template_Endpoint_Control_R.c **** }
 2700               		.loc 5 75 0
 2701 0074 80E0      		ldi r24,0
 2702 0076 0895      		ret
 2703               	.L252:
 2704               	.LBB405:
  46:LUFA-111009/LUFA/Drivers/USB/Core/AVR8/Template/Template_Endpoint_Control_R.c **** 		else if (USB_DeviceState_LCL == DEVICE_STATE_Suspended)
 2705               		.loc 5 46 0
 2706 0078 82E0      		ldi r24,lo8(2)
 2707 007a 0895      		ret
 2708               	.L253:
  48:LUFA-111009/LUFA/Drivers/USB/Core/AVR8/Template/Template_Endpoint_Control_R.c **** 		else if (Endpoint_IsSETUPReceived())
 2709               		.loc 5 48 0
 2710 007c 83E0      		ldi r24,lo8(3)
 2711               	.LBE405:
 2712               		.loc 5 76 0
 2713 007e 0895      		ret
 2714               		.cfi_endproc
 2715               	.LFE96:
 2717               		.section	.text.Endpoint_Write_Control_PStream_LE,"ax",@progbits
 2718               	.global	Endpoint_Write_Control_PStream_LE
 2720               	Endpoint_Write_Control_PStream_LE:
 2721               	.LFB97:
  35:LUFA-111009/LUFA/Drivers/USB/Core/AVR8/Template/Template_Endpoint_Control_W.c **** 	uint8_t* DataStream     = ((uint8_t*)Buffer + TEMPLATE_BUFFER_OFFSET(Length));
 2722               		.loc 4 35 0
 2723               		.cfi_startproc
 2724               	.LVL280:
 2725               	/* prologue: function */
 2726               	/* frame size = 0 */
 2727               	/* stack size = 0 */
 2728               	.L__stack_usage = 0
  39:LUFA-111009/LUFA/Drivers/USB/Core/AVR8/Template/Template_Endpoint_Control_W.c **** 	  Length = USB_ControlRequest.wLength;
 2729               		.loc 4 39 0
 2730 0000 2091 0000 		lds r18,USB_ControlRequest+6
 2731 0004 3091 0000 		lds r19,USB_ControlRequest+6+1
 2732 0008 2617      		cp r18,r22
 2733 000a 3707      		cpc r19,r23
 2734 000c 00F0      		brlo .L273
  41:LUFA-111009/LUFA/Drivers/USB/Core/AVR8/Template/Template_Endpoint_Control_W.c **** 	  Endpoint_ClearIN();
 2735               		.loc 4 41 0
 2736 000e 6115      		cp r22,__zero_reg__
 2737 0010 7105      		cpc r23,__zero_reg__
 2738 0012 01F4      		brne .L259
 2739               	.LBB406:
 2740               	.LBB407:
 516:LUFA-111009/LUFA/Drivers/USB/Core/AVR8/../AVR8/../AVR8/Endpoint_AVR8.h **** 				#else
 2741               		.loc 2 516 0
 2742 0014 2091 E800 		lds r18,232
 2743 0018 2E77      		andi r18,lo8(126)
 2744 001a 2093 E800 		sts 232,r18
 2745 001e 00C0      		rjmp .L259
 2746               	.L273:
 2747               	.LBE407:
 2748               	.LBE406:
 2749 0020 B901      		movw r22,r18
 2750               	.LVL281:
 2751               	.L259:
 2752 0022 FC01      		movw r30,r24
 2753 0024 20E0      		ldi r18,0
 2754               	.LVL282:
 2755               	.L265:
  44:LUFA-111009/LUFA/Drivers/USB/Core/AVR8/Template/Template_Endpoint_Control_W.c **** 	{
 2756               		.loc 4 44 0 discriminator 1
 2757 0026 6115      		cp r22,__zero_reg__
 2758 0028 7105      		cpc r23,__zero_reg__
 2759 002a 01F0      		breq .L285
 2760               	.L270:
 2761               	.LBB408:
  46:LUFA-111009/LUFA/Drivers/USB/Core/AVR8/Template/Template_Endpoint_Control_W.c **** 
 2762               		.loc 4 46 0
 2763 002c 8EB3      		in r24,0x1e
 2764               	.LVL283:
  48:LUFA-111009/LUFA/Drivers/USB/Core/AVR8/Template/Template_Endpoint_Control_W.c **** 		  return ENDPOINT_RWCSTREAM_DeviceDisconnected;
 2765               		.loc 4 48 0
 2766 002e 8823      		tst r24
 2767 0030 01F4      		brne .+2
 2768 0032 00C0      		rjmp .L277
  50:LUFA-111009/LUFA/Drivers/USB/Core/AVR8/Template/Template_Endpoint_Control_W.c **** 		  return ENDPOINT_RWCSTREAM_BusSuspended;
 2769               		.loc 4 50 0
 2770 0034 8530      		cpi r24,lo8(5)
 2771 0036 01F4      		brne .+2
 2772 0038 00C0      		rjmp .L278
 2773               	.LBB409:
 2774               	.LBB410:
 491:LUFA-111009/LUFA/Drivers/USB/Core/AVR8/../AVR8/../AVR8/Endpoint_AVR8.h **** 			}
 2775               		.loc 2 491 0
 2776 003a 8091 E800 		lds r24,232
 2777               	.LVL284:
 2778               	.LBE410:
 2779               	.LBE409:
  52:LUFA-111009/LUFA/Drivers/USB/Core/AVR8/Template/Template_Endpoint_Control_W.c **** 		  return ENDPOINT_RWCSTREAM_HostAborted;
 2780               		.loc 4 52 0
 2781 003e 83FD      		sbrc r24,3
 2782 0040 00C0      		rjmp .L276
 2783               	.LBB411:
 2784               	.LBB412:
 479:LUFA-111009/LUFA/Drivers/USB/Core/AVR8/../AVR8/../AVR8/Endpoint_AVR8.h **** 			}
 2785               		.loc 2 479 0
 2786 0042 8091 E800 		lds r24,232
 2787               	.LBE412:
 2788               	.LBE411:
  54:LUFA-111009/LUFA/Drivers/USB/Core/AVR8/Template/Template_Endpoint_Control_W.c **** 		  break;
 2789               		.loc 4 54 0
 2790 0046 82FF      		sbrs r24,2
 2791 0048 00C0      		rjmp .L262
 2792               	.L272:
 2793               	.LBE408:
 2794               	.LBB423:
 2795               	.LBB424:
 479:LUFA-111009/LUFA/Drivers/USB/Core/AVR8/../AVR8/../AVR8/Endpoint_AVR8.h **** 			}
 2796               		.loc 2 479 0 discriminator 1
 2797 004a 8091 E800 		lds r24,232
 2798               	.LBE424:
 2799               	.LBE423:
  74:LUFA-111009/LUFA/Drivers/USB/Core/AVR8/Template/Template_Endpoint_Control_W.c **** 	{
 2800               		.loc 4 74 0 discriminator 1
 2801 004e 82FF      		sbrs r24,2
 2802 0050 00C0      		rjmp .L263
  84:LUFA-111009/LUFA/Drivers/USB/Core/AVR8/Template/Template_Endpoint_Control_W.c **** }
 2803               		.loc 4 84 0
 2804 0052 80E0      		ldi r24,0
 2805 0054 0895      		ret
 2806               	.L262:
 2807               	.LBB425:
 2808               	.LBB413:
 2809               	.LBB414:
 467:LUFA-111009/LUFA/Drivers/USB/Core/AVR8/../AVR8/../AVR8/Endpoint_AVR8.h **** 			}
 2810               		.loc 2 467 0
 2811 0056 8091 E800 		lds r24,232
 2812               	.LBE414:
 2813               	.LBE413:
  57:LUFA-111009/LUFA/Drivers/USB/Core/AVR8/Template/Template_Endpoint_Control_W.c **** 		{
 2814               		.loc 4 57 0
 2815 005a 80FF      		sbrs r24,0
 2816 005c 00C0      		rjmp .L265
 2817               	.LBB415:
 2818               	.LBB416:
 2819               	.LBB417:
 295:LUFA-111009/LUFA/Drivers/USB/Core/AVR8/../AVR8/../AVR8/Endpoint_AVR8.h **** 				#elif defined(USB_SERIES_2_AVR)
 2820               		.loc 2 295 0
 2821 005e 2091 F300 		lds r18,243
 2822               	.LVL285:
 2823 0062 8091 F200 		lds r24,242
 2824 0066 90E0      		ldi r25,0
 2825 0068 922B      		or r25,r18
 2826               	.L266:
 2827               	.LVL286:
 2828               	.LBE417:
 2829               	.LBE416:
  61:LUFA-111009/LUFA/Drivers/USB/Core/AVR8/Template/Template_Endpoint_Control_W.c **** 			{
 2830               		.loc 4 61 0 discriminator 1
 2831 006a 6115      		cp r22,__zero_reg__
 2832 006c 7105      		cpc r23,__zero_reg__
 2833 006e 01F0      		breq .L267
  61:LUFA-111009/LUFA/Drivers/USB/Core/AVR8/Template/Template_Endpoint_Control_W.c **** 			{
 2834               		.loc 4 61 0 is_stmt 0 discriminator 2
 2835 0070 8830      		cpi r24,8
 2836 0072 9105      		cpc r25,__zero_reg__
 2837 0074 00F4      		brsh .L267
 2838               	.LVL287:
 2839               	.LBB418:
  63:LUFA-111009/LUFA/Drivers/USB/Core/AVR8/Template/Template_Endpoint_Control_W.c **** 				TEMPLATE_BUFFER_MOVE(DataStream, 1);
 2840               		.loc 4 63 0 is_stmt 1
 2841               	/* #APP */
 2842               	 ;  63 "LUFA-111009/LUFA/Drivers/USB/Core/AVR8/Template/Template_Endpoint_Control_W.c" 1
 2843 0076 2491      		lpm r18, Z
 2844               		
 2845               	 ;  0 "" 2
 2846               	.LVL288:
 2847               	/* #NOAPP */
 2848               	.LBE418:
 2849               	.LBB419:
 2850               	.LBB420:
 624:LUFA-111009/LUFA/Drivers/USB/Core/AVR8/../AVR8/../AVR8/Endpoint_AVR8.h **** 			}
 2851               		.loc 2 624 0
 2852 0078 2093 F100 		sts 241,r18
 2853               	.LBE420:
 2854               	.LBE419:
  64:LUFA-111009/LUFA/Drivers/USB/Core/AVR8/Template/Template_Endpoint_Control_W.c **** 				Length--;
 2855               		.loc 4 64 0
 2856 007c 3196      		adiw r30,1
 2857               	.LVL289:
  65:LUFA-111009/LUFA/Drivers/USB/Core/AVR8/Template/Template_Endpoint_Control_W.c **** 				BytesInEndpoint++;
 2858               		.loc 4 65 0
 2859 007e 6150      		subi r22,1
 2860 0080 7109      		sbc r23,__zero_reg__
 2861               	.LVL290:
  66:LUFA-111009/LUFA/Drivers/USB/Core/AVR8/Template/Template_Endpoint_Control_W.c **** 			}
 2862               		.loc 4 66 0
 2863 0082 0196      		adiw r24,1
 2864               	.LVL291:
 2865 0084 00C0      		rjmp .L266
 2866               	.LVL292:
 2867               	.L267:
  69:LUFA-111009/LUFA/Drivers/USB/Core/AVR8/Template/Template_Endpoint_Control_W.c **** 			Endpoint_ClearIN();
 2868               		.loc 4 69 0
 2869 0086 21E0      		ldi r18,lo8(1)
 2870 0088 0897      		sbiw r24,8
 2871 008a 01F0      		breq .L269
 2872 008c 20E0      		ldi r18,0
 2873               	.L269:
 2874               	.LVL293:
 2875               	.LBB421:
 2876               	.LBB422:
 516:LUFA-111009/LUFA/Drivers/USB/Core/AVR8/../AVR8/../AVR8/Endpoint_AVR8.h **** 				#else
 2877               		.loc 2 516 0
 2878 008e 8091 E800 		lds r24,232
 2879               	.LVL294:
 2880 0092 8E77      		andi r24,lo8(126)
 2881 0094 8093 E800 		sts 232,r24
 2882 0098 00C0      		rjmp .L265
 2883               	.L285:
 2884               	.LBE422:
 2885               	.LBE421:
 2886               	.LBE415:
 2887               	.LBE425:
  44:LUFA-111009/LUFA/Drivers/USB/Core/AVR8/Template/Template_Endpoint_Control_W.c **** 	{
 2888               		.loc 4 44 0 discriminator 2
 2889 009a 2111      		cpse r18,__zero_reg__
 2890 009c 00C0      		rjmp .L270
 2891 009e 00C0      		rjmp .L272
 2892               	.L263:
 2893               	.LBB426:
  76:LUFA-111009/LUFA/Drivers/USB/Core/AVR8/Template/Template_Endpoint_Control_W.c **** 
 2894               		.loc 4 76 0
 2895 00a0 8EB3      		in r24,0x1e
 2896               	.LVL295:
